
pool:     file format elf32-i386

Disassembly of section .init:

08048ba0 <_init>:
 8048ba0:	55                   	push   %ebp
 8048ba1:	89 e5                	mov    %esp,%ebp
 8048ba3:	53                   	push   %ebx
 8048ba4:	83 ec 04             	sub    $0x4,%esp
 8048ba7:	e8 00 00 00 00       	call   8048bac <_init+0xc>
 8048bac:	5b                   	pop    %ebx
 8048bad:	81 c3 68 75 00 00    	add    $0x7568,%ebx
 8048bb3:	8b 93 fc ff ff ff    	mov    -0x4(%ebx),%edx
 8048bb9:	85 d2                	test   %edx,%edx
 8048bbb:	74 05                	je     8048bc2 <_init+0x22>
 8048bbd:	e8 8e 00 00 00       	call   8048c50 <__gmon_start__@plt>
 8048bc2:	e8 49 03 00 00       	call   8048f10 <frame_dummy>
 8048bc7:	e8 14 5c 00 00       	call   804e7e0 <__do_global_ctors_aux>
 8048bcc:	58                   	pop    %eax
 8048bcd:	5b                   	pop    %ebx
 8048bce:	c9                   	leave  
 8048bcf:	c3                   	ret    
Disassembly of section .plt:

08048bd0 <std::ostream::operator<<(int)@plt-0x10>:
 8048bd0:	ff 35 18 01 05 08    	pushl  0x8050118
 8048bd6:	ff 25 1c 01 05 08    	jmp    *0x805011c
 8048bdc:	00 00                	add    %al,(%eax)
	...

08048be0 <std::ostream::operator<<(int)@plt>:
 8048be0:	ff 25 20 01 05 08    	jmp    *0x8050120
 8048be6:	68 00 00 00 00       	push   $0x0
 8048beb:	e9 e0 ff ff ff       	jmp    8048bd0 <_init+0x30>

08048bf0 <pthread_join@plt>:
 8048bf0:	ff 25 24 01 05 08    	jmp    *0x8050124
 8048bf6:	68 08 00 00 00       	push   $0x8
 8048bfb:	e9 d0 ff ff ff       	jmp    8048bd0 <_init+0x30>

08048c00 <__cxa_atexit@plt>:
 8048c00:	ff 25 28 01 05 08    	jmp    *0x8050128
 8048c06:	68 10 00 00 00       	push   $0x10
 8048c0b:	e9 c0 ff ff ff       	jmp    8048bd0 <_init+0x30>

08048c10 <pthread_attr_setdetachstate@plt>:
 8048c10:	ff 25 2c 01 05 08    	jmp    *0x805012c
 8048c16:	68 18 00 00 00       	push   $0x18
 8048c1b:	e9 b0 ff ff ff       	jmp    8048bd0 <_init+0x30>

08048c20 <getchar@plt>:
 8048c20:	ff 25 30 01 05 08    	jmp    *0x8050130
 8048c26:	68 20 00 00 00       	push   $0x20
 8048c2b:	e9 a0 ff ff ff       	jmp    8048bd0 <_init+0x30>

08048c30 <pthread_exit@plt>:
 8048c30:	ff 25 34 01 05 08    	jmp    *0x8050134
 8048c36:	68 28 00 00 00       	push   $0x28
 8048c3b:	e9 90 ff ff ff       	jmp    8048bd0 <_init+0x30>

08048c40 <sqrtf@plt>:
 8048c40:	ff 25 38 01 05 08    	jmp    *0x8050138
 8048c46:	68 30 00 00 00       	push   $0x30
 8048c4b:	e9 80 ff ff ff       	jmp    8048bd0 <_init+0x30>

08048c50 <__gmon_start__@plt>:
 8048c50:	ff 25 3c 01 05 08    	jmp    *0x805013c
 8048c56:	68 38 00 00 00       	push   $0x38
 8048c5b:	e9 70 ff ff ff       	jmp    8048bd0 <_init+0x30>

08048c60 <std::string::size() const@plt>:
 8048c60:	ff 25 40 01 05 08    	jmp    *0x8050140
 8048c66:	68 40 00 00 00       	push   $0x40
 8048c6b:	e9 60 ff ff ff       	jmp    8048bd0 <_init+0x30>

08048c70 <putchar@plt>:
 8048c70:	ff 25 44 01 05 08    	jmp    *0x8050144
 8048c76:	68 48 00 00 00       	push   $0x48
 8048c7b:	e9 50 ff ff ff       	jmp    8048bd0 <_init+0x30>

08048c80 <std::ios_base::Init::Init()@plt>:
 8048c80:	ff 25 48 01 05 08    	jmp    *0x8050148
 8048c86:	68 50 00 00 00       	push   $0x50
 8048c8b:	e9 40 ff ff ff       	jmp    8048bd0 <_init+0x30>

08048c90 <pow@plt>:
 8048c90:	ff 25 4c 01 05 08    	jmp    *0x805014c
 8048c96:	68 58 00 00 00       	push   $0x58
 8048c9b:	e9 30 ff ff ff       	jmp    8048bd0 <_init+0x30>

08048ca0 <__libc_start_main@plt>:
 8048ca0:	ff 25 50 01 05 08    	jmp    *0x8050150
 8048ca6:	68 60 00 00 00       	push   $0x60
 8048cab:	e9 20 ff ff ff       	jmp    8048bd0 <_init+0x30>

08048cb0 <std::basic_ostream<char, std::char_traits<char> >& std::operator<< <std::char_traits<char> >(std::basic_ostream<char, std::char_traits<char> >&, char)@plt>:
 8048cb0:	ff 25 54 01 05 08    	jmp    *0x8050154
 8048cb6:	68 68 00 00 00       	push   $0x68
 8048cbb:	e9 10 ff ff ff       	jmp    8048bd0 <_init+0x30>

08048cc0 <std::ios_base::Init::~Init()@plt>:
 8048cc0:	ff 25 58 01 05 08    	jmp    *0x8050158
 8048cc6:	68 70 00 00 00       	push   $0x70
 8048ccb:	e9 00 ff ff ff       	jmp    8048bd0 <_init+0x30>

08048cd0 <std::basic_ostream<char, std::char_traits<char> >& std::operator<< <std::char_traits<char> >(std::basic_ostream<char, std::char_traits<char> >&, char const*)@plt>:
 8048cd0:	ff 25 5c 01 05 08    	jmp    *0x805015c
 8048cd6:	68 78 00 00 00       	push   $0x78
 8048cdb:	e9 f0 fe ff ff       	jmp    8048bd0 <_init+0x30>

08048ce0 <free@plt>:
 8048ce0:	ff 25 60 01 05 08    	jmp    *0x8050160
 8048ce6:	68 80 00 00 00       	push   $0x80
 8048ceb:	e9 e0 fe ff ff       	jmp    8048bd0 <_init+0x30>

08048cf0 <scanf@plt>:
 8048cf0:	ff 25 64 01 05 08    	jmp    *0x8050164
 8048cf6:	68 88 00 00 00       	push   $0x88
 8048cfb:	e9 d0 fe ff ff       	jmp    8048bd0 <_init+0x30>

08048d00 <sqrt@plt>:
 8048d00:	ff 25 68 01 05 08    	jmp    *0x8050168
 8048d06:	68 90 00 00 00       	push   $0x90
 8048d0b:	e9 c0 fe ff ff       	jmp    8048bd0 <_init+0x30>

08048d10 <pthread_mutex_unlock@plt>:
 8048d10:	ff 25 6c 01 05 08    	jmp    *0x805016c
 8048d16:	68 98 00 00 00       	push   $0x98
 8048d1b:	e9 b0 fe ff ff       	jmp    8048bd0 <_init+0x30>

08048d20 <pthread_attr_init@plt>:
 8048d20:	ff 25 70 01 05 08    	jmp    *0x8050170
 8048d26:	68 a0 00 00 00       	push   $0xa0
 8048d2b:	e9 a0 fe ff ff       	jmp    8048bd0 <_init+0x30>

08048d30 <std::string::operator[](unsigned int) const@plt>:
 8048d30:	ff 25 74 01 05 08    	jmp    *0x8050174
 8048d36:	68 a8 00 00 00       	push   $0xa8
 8048d3b:	e9 90 fe ff ff       	jmp    8048bd0 <_init+0x30>

08048d40 <memcpy@plt>:
 8048d40:	ff 25 78 01 05 08    	jmp    *0x8050178
 8048d46:	68 b0 00 00 00       	push   $0xb0
 8048d4b:	e9 80 fe ff ff       	jmp    8048bd0 <_init+0x30>

08048d50 <cos@plt>:
 8048d50:	ff 25 7c 01 05 08    	jmp    *0x805017c
 8048d56:	68 b8 00 00 00       	push   $0xb8
 8048d5b:	e9 70 fe ff ff       	jmp    8048bd0 <_init+0x30>

08048d60 <pthread_mutex_destroy@plt>:
 8048d60:	ff 25 80 01 05 08    	jmp    *0x8050180
 8048d66:	68 c0 00 00 00       	push   $0xc0
 8048d6b:	e9 60 fe ff ff       	jmp    8048bd0 <_init+0x30>

08048d70 <printf@plt>:
 8048d70:	ff 25 84 01 05 08    	jmp    *0x8050184
 8048d76:	68 c8 00 00 00       	push   $0xc8
 8048d7b:	e9 50 fe ff ff       	jmp    8048bd0 <_init+0x30>

08048d80 <atoi@plt>:
 8048d80:	ff 25 88 01 05 08    	jmp    *0x8050188
 8048d86:	68 d0 00 00 00       	push   $0xd0
 8048d8b:	e9 40 fe ff ff       	jmp    8048bd0 <_init+0x30>

08048d90 <pthread_mutex_init@plt>:
 8048d90:	ff 25 8c 01 05 08    	jmp    *0x805018c
 8048d96:	68 d8 00 00 00       	push   $0xd8
 8048d9b:	e9 30 fe ff ff       	jmp    8048bd0 <_init+0x30>

08048da0 <fwrite@plt>:
 8048da0:	ff 25 90 01 05 08    	jmp    *0x8050190
 8048da6:	68 e0 00 00 00       	push   $0xe0
 8048dab:	e9 20 fe ff ff       	jmp    8048bd0 <_init+0x30>

08048db0 <operator new[](unsigned int)@plt>:
 8048db0:	ff 25 94 01 05 08    	jmp    *0x8050194
 8048db6:	68 e8 00 00 00       	push   $0xe8
 8048dbb:	e9 10 fe ff ff       	jmp    8048bd0 <_init+0x30>

08048dc0 <fprintf@plt>:
 8048dc0:	ff 25 98 01 05 08    	jmp    *0x8050198
 8048dc6:	68 f0 00 00 00       	push   $0xf0
 8048dcb:	e9 00 fe ff ff       	jmp    8048bd0 <_init+0x30>

08048dd0 <time@plt>:
 8048dd0:	ff 25 9c 01 05 08    	jmp    *0x805019c
 8048dd6:	68 f8 00 00 00       	push   $0xf8
 8048ddb:	e9 f0 fd ff ff       	jmp    8048bd0 <_init+0x30>

08048de0 <malloc@plt>:
 8048de0:	ff 25 a0 01 05 08    	jmp    *0x80501a0
 8048de6:	68 00 01 00 00       	push   $0x100
 8048deb:	e9 e0 fd ff ff       	jmp    8048bd0 <_init+0x30>

08048df0 <pthread_mutex_lock@plt>:
 8048df0:	ff 25 a4 01 05 08    	jmp    *0x80501a4
 8048df6:	68 08 01 00 00       	push   $0x108
 8048dfb:	e9 d0 fd ff ff       	jmp    8048bd0 <_init+0x30>

08048e00 <__stack_chk_fail@plt>:
 8048e00:	ff 25 a8 01 05 08    	jmp    *0x80501a8
 8048e06:	68 10 01 00 00       	push   $0x110
 8048e0b:	e9 c0 fd ff ff       	jmp    8048bd0 <_init+0x30>

08048e10 <pthread_create@plt>:
 8048e10:	ff 25 ac 01 05 08    	jmp    *0x80501ac
 8048e16:	68 18 01 00 00       	push   $0x118
 8048e1b:	e9 b0 fd ff ff       	jmp    8048bd0 <_init+0x30>

08048e20 <operator delete[](void*)@plt>:
 8048e20:	ff 25 b0 01 05 08    	jmp    *0x80501b0
 8048e26:	68 20 01 00 00       	push   $0x120
 8048e2b:	e9 a0 fd ff ff       	jmp    8048bd0 <_init+0x30>

08048e30 <std::ostream::operator<<(float)@plt>:
 8048e30:	ff 25 b4 01 05 08    	jmp    *0x80501b4
 8048e36:	68 28 01 00 00       	push   $0x128
 8048e3b:	e9 90 fd ff ff       	jmp    8048bd0 <_init+0x30>

08048e40 <log@plt>:
 8048e40:	ff 25 b8 01 05 08    	jmp    *0x80501b8
 8048e46:	68 30 01 00 00       	push   $0x130
 8048e4b:	e9 80 fd ff ff       	jmp    8048bd0 <_init+0x30>

08048e50 <puts@plt>:
 8048e50:	ff 25 bc 01 05 08    	jmp    *0x80501bc
 8048e56:	68 38 01 00 00       	push   $0x138
 8048e5b:	e9 70 fd ff ff       	jmp    8048bd0 <_init+0x30>

08048e60 <rand@plt>:
 8048e60:	ff 25 c0 01 05 08    	jmp    *0x80501c0
 8048e66:	68 40 01 00 00       	push   $0x140
 8048e6b:	e9 60 fd ff ff       	jmp    8048bd0 <_init+0x30>

08048e70 <pthread_attr_destroy@plt>:
 8048e70:	ff 25 c4 01 05 08    	jmp    *0x80501c4
 8048e76:	68 48 01 00 00       	push   $0x148
 8048e7b:	e9 50 fd ff ff       	jmp    8048bd0 <_init+0x30>

08048e80 <__gxx_personality_v0@plt>:
 8048e80:	ff 25 c8 01 05 08    	jmp    *0x80501c8
 8048e86:	68 50 01 00 00       	push   $0x150
 8048e8b:	e9 40 fd ff ff       	jmp    8048bd0 <_init+0x30>

08048e90 <sin@plt>:
 8048e90:	ff 25 cc 01 05 08    	jmp    *0x80501cc
 8048e96:	68 58 01 00 00       	push   $0x158
 8048e9b:	e9 30 fd ff ff       	jmp    8048bd0 <_init+0x30>

08048ea0 <exit@plt>:
 8048ea0:	ff 25 d0 01 05 08    	jmp    *0x80501d0
 8048ea6:	68 60 01 00 00       	push   $0x160
 8048eab:	e9 20 fd ff ff       	jmp    8048bd0 <_init+0x30>
Disassembly of section .text:

08048eb0 <_start>:
 8048eb0:	31 ed                	xor    %ebp,%ebp
 8048eb2:	5e                   	pop    %esi
 8048eb3:	89 e1                	mov    %esp,%ecx
 8048eb5:	83 e4 f0             	and    $0xfffffff0,%esp
 8048eb8:	50                   	push   %eax
 8048eb9:	54                   	push   %esp
 8048eba:	52                   	push   %edx
 8048ebb:	68 70 e7 04 08       	push   $0x804e770
 8048ec0:	68 80 e7 04 08       	push   $0x804e780
 8048ec5:	51                   	push   %ecx
 8048ec6:	56                   	push   %esi
 8048ec7:	68 28 cb 04 08       	push   $0x804cb28
 8048ecc:	e8 cf fd ff ff       	call   8048ca0 <__libc_start_main@plt>
 8048ed1:	f4                   	hlt    
 8048ed2:	90                   	nop    
 8048ed3:	90                   	nop    
 8048ed4:	90                   	nop    
 8048ed5:	90                   	nop    
 8048ed6:	90                   	nop    
 8048ed7:	90                   	nop    
 8048ed8:	90                   	nop    
 8048ed9:	90                   	nop    
 8048eda:	90                   	nop    
 8048edb:	90                   	nop    
 8048edc:	90                   	nop    
 8048edd:	90                   	nop    
 8048ede:	90                   	nop    
 8048edf:	90                   	nop    

08048ee0 <__do_global_dtors_aux>:
 8048ee0:	55                   	push   %ebp
 8048ee1:	89 e5                	mov    %esp,%ebp
 8048ee3:	83 ec 08             	sub    $0x8,%esp
 8048ee6:	80 3d 6c 04 05 08 00 	cmpb   $0x0,0x805046c
 8048eed:	74 0c                	je     8048efb <__do_global_dtors_aux+0x1b>
 8048eef:	eb 1c                	jmp    8048f0d <__do_global_dtors_aux+0x2d>
 8048ef1:	83 c0 04             	add    $0x4,%eax
 8048ef4:	a3 e8 01 05 08       	mov    %eax,0x80501e8
 8048ef9:	ff d2                	call   *%edx
 8048efb:	a1 e8 01 05 08       	mov    0x80501e8,%eax
 8048f00:	8b 10                	mov    (%eax),%edx
 8048f02:	85 d2                	test   %edx,%edx
 8048f04:	75 eb                	jne    8048ef1 <__do_global_dtors_aux+0x11>
 8048f06:	c6 05 6c 04 05 08 01 	movb   $0x1,0x805046c
 8048f0d:	c9                   	leave  
 8048f0e:	c3                   	ret    
 8048f0f:	90                   	nop    

08048f10 <frame_dummy>:
 8048f10:	55                   	push   %ebp
 8048f11:	89 e5                	mov    %esp,%ebp
 8048f13:	83 ec 08             	sub    $0x8,%esp
 8048f16:	a1 1c 00 05 08       	mov    0x805001c,%eax
 8048f1b:	85 c0                	test   %eax,%eax
 8048f1d:	74 12                	je     8048f31 <frame_dummy+0x21>
 8048f1f:	b8 00 00 00 00       	mov    $0x0,%eax
 8048f24:	85 c0                	test   %eax,%eax
 8048f26:	74 09                	je     8048f31 <frame_dummy+0x21>
 8048f28:	c7 04 24 1c 00 05 08 	movl   $0x805001c,(%esp)
 8048f2f:	ff d0                	call   *%eax
 8048f31:	c9                   	leave  
 8048f32:	c3                   	ret    
 8048f33:	90                   	nop    

08048f34 <GAThread::GAThread()>:
 8048f34:	55                   	push   %ebp
 8048f35:	89 e5                	mov    %esp,%ebp
 8048f37:	8b 45 08             	mov    0x8(%ebp),%eax
 8048f3a:	c7 80 fc 0f 00 00 ff 	movl   $0xffffffff,0xffc(%eax)
 8048f41:	ff ff ff 
 8048f44:	5d                   	pop    %ebp
 8048f45:	c3                   	ret    

08048f46 <GAThread::GAThread()>:
 8048f46:	55                   	push   %ebp
 8048f47:	89 e5                	mov    %esp,%ebp
 8048f49:	8b 45 08             	mov    0x8(%ebp),%eax
 8048f4c:	c7 80 fc 0f 00 00 ff 	movl   $0xffffffff,0xffc(%eax)
 8048f53:	ff ff ff 
 8048f56:	5d                   	pop    %ebp
 8048f57:	c3                   	ret    

08048f58 <GAThread::copy_global()>:
 8048f58:	55                   	push   %ebp
 8048f59:	89 e5                	mov    %esp,%ebp
 8048f5b:	83 ec 10             	sub    $0x10,%esp
 8048f5e:	8b 15 80 04 05 08    	mov    0x8050480,%edx
 8048f64:	8b 45 08             	mov    0x8(%ebp),%eax
 8048f67:	89 10                	mov    %edx,(%eax)
 8048f69:	8b 45 08             	mov    0x8(%ebp),%eax
 8048f6c:	c7 40 04 00 00 00 00 	movl   $0x0,0x4(%eax)
 8048f73:	8b 15 84 04 05 08    	mov    0x8050484,%edx
 8048f79:	8b 45 08             	mov    0x8(%ebp),%eax
 8048f7c:	89 50 08             	mov    %edx,0x8(%eax)
 8048f7f:	8b 45 08             	mov    0x8(%ebp),%eax
 8048f82:	c7 40 0c 00 00 00 00 	movl   $0x0,0xc(%eax)
 8048f89:	8b 45 08             	mov    0x8(%ebp),%eax
 8048f8c:	c7 40 10 00 00 00 00 	movl   $0x0,0x10(%eax)
 8048f93:	8b 45 08             	mov    0x8(%ebp),%eax
 8048f96:	c7 40 14 00 00 00 00 	movl   $0x0,0x14(%eax)
 8048f9d:	8b 15 8c 04 05 08    	mov    0x805048c,%edx
 8048fa3:	8b 45 08             	mov    0x8(%ebp),%eax
 8048fa6:	89 50 18             	mov    %edx,0x18(%eax)
 8048fa9:	8b 15 90 04 05 08    	mov    0x8050490,%edx
 8048faf:	8b 45 08             	mov    0x8(%ebp),%eax
 8048fb2:	89 50 1c             	mov    %edx,0x1c(%eax)
 8048fb5:	8b 15 94 04 05 08    	mov    0x8050494,%edx
 8048fbb:	8b 45 08             	mov    0x8(%ebp),%eax
 8048fbe:	89 50 20             	mov    %edx,0x20(%eax)
 8048fc1:	8b 15 98 04 05 08    	mov    0x8050498,%edx
 8048fc7:	8b 45 08             	mov    0x8(%ebp),%eax
 8048fca:	89 50 24             	mov    %edx,0x24(%eax)
 8048fcd:	8b 15 9c 04 05 08    	mov    0x805049c,%edx
 8048fd3:	8b 45 08             	mov    0x8(%ebp),%eax
 8048fd6:	89 50 28             	mov    %edx,0x28(%eax)
 8048fd9:	8b 15 a0 04 05 08    	mov    0x80504a0,%edx
 8048fdf:	8b 45 08             	mov    0x8(%ebp),%eax
 8048fe2:	89 50 2c             	mov    %edx,0x2c(%eax)
 8048fe5:	8b 15 a4 04 05 08    	mov    0x80504a4,%edx
 8048feb:	8b 45 08             	mov    0x8(%ebp),%eax
 8048fee:	89 50 30             	mov    %edx,0x30(%eax)
 8048ff1:	8b 15 a8 04 05 08    	mov    0x80504a8,%edx
 8048ff7:	8b 45 08             	mov    0x8(%ebp),%eax
 8048ffa:	89 50 34             	mov    %edx,0x34(%eax)
 8048ffd:	8b 45 08             	mov    0x8(%ebp),%eax
 8049000:	c7 40 38 00 00 00 00 	movl   $0x0,0x38(%eax)
 8049007:	8b 15 ac 04 05 08    	mov    0x80504ac,%edx
 804900d:	8b 45 08             	mov    0x8(%ebp),%eax
 8049010:	89 50 3c             	mov    %edx,0x3c(%eax)
 8049013:	8b 15 b0 04 05 08    	mov    0x80504b0,%edx
 8049019:	8b 45 08             	mov    0x8(%ebp),%eax
 804901c:	89 50 40             	mov    %edx,0x40(%eax)
 804901f:	8b 15 b4 04 05 08    	mov    0x80504b4,%edx
 8049025:	8b 45 08             	mov    0x8(%ebp),%eax
 8049028:	89 50 44             	mov    %edx,0x44(%eax)
 804902b:	8b 15 b8 04 05 08    	mov    0x80504b8,%edx
 8049031:	8b 45 08             	mov    0x8(%ebp),%eax
 8049034:	89 50 48             	mov    %edx,0x48(%eax)
 8049037:	8b 15 bc 04 05 08    	mov    0x80504bc,%edx
 804903d:	8b 45 08             	mov    0x8(%ebp),%eax
 8049040:	89 50 4c             	mov    %edx,0x4c(%eax)
 8049043:	8b 15 c0 04 05 08    	mov    0x80504c0,%edx
 8049049:	8b 45 08             	mov    0x8(%ebp),%eax
 804904c:	89 50 50             	mov    %edx,0x50(%eax)
 804904f:	8b 15 c4 04 05 08    	mov    0x80504c4,%edx
 8049055:	8b 45 08             	mov    0x8(%ebp),%eax
 8049058:	89 90 f8 0f 00 00    	mov    %edx,0xff8(%eax)
 804905e:	8b 15 c8 04 05 08    	mov    0x80504c8,%edx
 8049064:	8b 45 08             	mov    0x8(%ebp),%eax
 8049067:	89 90 fc 0f 00 00    	mov    %edx,0xffc(%eax)
 804906d:	8b 15 d0 04 05 08    	mov    0x80504d0,%edx
 8049073:	8b 45 08             	mov    0x8(%ebp),%eax
 8049076:	89 90 00 10 00 00    	mov    %edx,0x1000(%eax)
 804907c:	8b 15 d4 04 05 08    	mov    0x80504d4,%edx
 8049082:	8b 45 08             	mov    0x8(%ebp),%eax
 8049085:	89 90 04 10 00 00    	mov    %edx,0x1004(%eax)
 804908b:	8b 15 d8 04 05 08    	mov    0x80504d8,%edx
 8049091:	8b 45 08             	mov    0x8(%ebp),%eax
 8049094:	89 90 08 10 00 00    	mov    %edx,0x1008(%eax)
 804909a:	8b 15 dc 04 05 08    	mov    0x80504dc,%edx
 80490a0:	8b 45 08             	mov    0x8(%ebp),%eax
 80490a3:	89 90 0c 10 00 00    	mov    %edx,0x100c(%eax)
 80490a9:	8b 15 e0 04 05 08    	mov    0x80504e0,%edx
 80490af:	8b 45 08             	mov    0x8(%ebp),%eax
 80490b2:	89 90 10 10 00 00    	mov    %edx,0x1010(%eax)
 80490b8:	8b 15 e4 04 05 08    	mov    0x80504e4,%edx
 80490be:	8b 45 08             	mov    0x8(%ebp),%eax
 80490c1:	89 90 14 10 00 00    	mov    %edx,0x1014(%eax)
 80490c7:	8b 55 08             	mov    0x8(%ebp),%edx
 80490ca:	b8 00 00 00 00       	mov    $0x0,%eax
 80490cf:	89 82 18 10 00 00    	mov    %eax,0x1018(%edx)
 80490d5:	8b 55 08             	mov    0x8(%ebp),%edx
 80490d8:	b8 00 00 00 00       	mov    $0x0,%eax
 80490dd:	89 82 1c 10 00 00    	mov    %eax,0x101c(%edx)
 80490e3:	8b 55 08             	mov    0x8(%ebp),%edx
 80490e6:	b8 00 00 00 00       	mov    $0x0,%eax
 80490eb:	89 82 20 10 00 00    	mov    %eax,0x1020(%edx)
 80490f1:	8b 55 08             	mov    0x8(%ebp),%edx
 80490f4:	b8 00 00 00 00       	mov    $0x0,%eax
 80490f9:	89 82 24 10 00 00    	mov    %eax,0x1024(%edx)
 80490ff:	8b 15 f8 06 05 08    	mov    0x80506f8,%edx
 8049105:	8b 45 08             	mov    0x8(%ebp),%eax
 8049108:	89 90 08 12 00 00    	mov    %edx,0x1208(%eax)
 804910e:	c7 45 fc 00 00 00 00 	movl   $0x0,-0x4(%ebp)
 8049115:	eb 32                	jmp    8049149 <GAThread::copy_global()+0x1f1>
 8049117:	8b 4d fc             	mov    -0x4(%ebp),%ecx
 804911a:	8b 45 fc             	mov    -0x4(%ebp),%eax
 804911d:	8b 14 85 80 06 05 08 	mov    0x8050680(,%eax,4),%edx
 8049124:	8b 45 08             	mov    0x8(%ebp),%eax
 8049127:	89 94 88 90 11 00 00 	mov    %edx,0x1190(%eax,%ecx,4)
 804912e:	8b 4d fc             	mov    -0x4(%ebp),%ecx
 8049131:	8b 45 fc             	mov    -0x4(%ebp),%eax
 8049134:	8b 14 85 00 06 05 08 	mov    0x8050600(,%eax,4),%edx
 804913b:	8b 45 08             	mov    0x8(%ebp),%eax
 804913e:	89 94 88 18 11 00 00 	mov    %edx,0x1118(%eax,%ecx,4)
 8049145:	83 45 fc 01          	addl   $0x1,-0x4(%ebp)
 8049149:	8b 45 08             	mov    0x8(%ebp),%eax
 804914c:	8b 40 18             	mov    0x18(%eax),%eax
 804914f:	83 e8 01             	sub    $0x1,%eax
 8049152:	3b 45 fc             	cmp    -0x4(%ebp),%eax
 8049155:	7d c0                	jge    8049117 <GAThread::copy_global()+0x1bf>
 8049157:	c9                   	leave  
 8049158:	c3                   	ret    
 8049159:	90                   	nop    

0804915a <std::__verify_grouping(char const*, unsigned int, std::string const&)>:
 804915a:	55                   	push   %ebp
 804915b:	89 e5                	mov    %esp,%ebp
 804915d:	53                   	push   %ebx
 804915e:	83 ec 34             	sub    $0x34,%esp
 8049161:	8b 45 10             	mov    0x10(%ebp),%eax
 8049164:	89 04 24             	mov    %eax,(%esp)
 8049167:	e8 f4 fa ff ff       	call   8048c60 <std::string::size() const@plt>
 804916c:	83 e8 01             	sub    $0x1,%eax
 804916f:	89 45 f4             	mov    %eax,-0xc(%ebp)
 8049172:	8b 45 0c             	mov    0xc(%ebp),%eax
 8049175:	83 e8 01             	sub    $0x1,%eax
 8049178:	89 45 ec             	mov    %eax,-0x14(%ebp)
 804917b:	8d 45 ec             	lea    -0x14(%ebp),%eax
 804917e:	89 44 24 04          	mov    %eax,0x4(%esp)
 8049182:	8d 45 f4             	lea    -0xc(%ebp),%eax
 8049185:	89 04 24             	mov    %eax,(%esp)
 8049188:	e8 bb 3d 00 00       	call   804cf48 <unsigned int const& std::min<unsigned int>(unsigned int const&, unsigned int const&)>
 804918d:	8b 00                	mov    (%eax),%eax
 804918f:	89 45 f0             	mov    %eax,-0x10(%ebp)
 8049192:	8b 45 f4             	mov    -0xc(%ebp),%eax
 8049195:	89 45 e8             	mov    %eax,-0x18(%ebp)
 8049198:	c6 45 fb 01          	movb   $0x1,-0x5(%ebp)
 804919c:	c7 45 e4 00 00 00 00 	movl   $0x0,-0x1c(%ebp)
 80491a3:	eb 2e                	jmp    80491d3 <std::__verify_grouping(char const*, unsigned int, std::string const&)+0x79>
 80491a5:	8b 45 e8             	mov    -0x18(%ebp),%eax
 80491a8:	89 44 24 04          	mov    %eax,0x4(%esp)
 80491ac:	8b 45 10             	mov    0x10(%ebp),%eax
 80491af:	89 04 24             	mov    %eax,(%esp)
 80491b2:	e8 79 fb ff ff       	call   8048d30 <std::string::operator[](unsigned int) const@plt>
 80491b7:	0f b6 10             	movzbl (%eax),%edx
 80491ba:	8b 45 e4             	mov    -0x1c(%ebp),%eax
 80491bd:	03 45 08             	add    0x8(%ebp),%eax
 80491c0:	0f b6 00             	movzbl (%eax),%eax
 80491c3:	38 c2                	cmp    %al,%dl
 80491c5:	0f 94 c0             	sete   %al
 80491c8:	88 45 fb             	mov    %al,-0x5(%ebp)
 80491cb:	83 6d e8 01          	subl   $0x1,-0x18(%ebp)
 80491cf:	83 45 e4 01          	addl   $0x1,-0x1c(%ebp)
 80491d3:	8b 45 e4             	mov    -0x1c(%ebp),%eax
 80491d6:	3b 45 f0             	cmp    -0x10(%ebp),%eax
 80491d9:	73 32                	jae    804920d <std::__verify_grouping(char const*, unsigned int, std::string const&)+0xb3>
 80491db:	80 7d fb 00          	cmpb   $0x0,-0x5(%ebp)
 80491df:	75 c4                	jne    80491a5 <std::__verify_grouping(char const*, unsigned int, std::string const&)+0x4b>
 80491e1:	eb 2a                	jmp    804920d <std::__verify_grouping(char const*, unsigned int, std::string const&)+0xb3>
 80491e3:	8b 45 e8             	mov    -0x18(%ebp),%eax
 80491e6:	89 44 24 04          	mov    %eax,0x4(%esp)
 80491ea:	8b 45 10             	mov    0x10(%ebp),%eax
 80491ed:	89 04 24             	mov    %eax,(%esp)
 80491f0:	e8 3b fb ff ff       	call   8048d30 <std::string::operator[](unsigned int) const@plt>
 80491f5:	0f b6 10             	movzbl (%eax),%edx
 80491f8:	8b 45 f0             	mov    -0x10(%ebp),%eax
 80491fb:	03 45 08             	add    0x8(%ebp),%eax
 80491fe:	0f b6 00             	movzbl (%eax),%eax
 8049201:	38 c2                	cmp    %al,%dl
 8049203:	0f 94 c0             	sete   %al
 8049206:	88 45 fb             	mov    %al,-0x5(%ebp)
 8049209:	83 6d e8 01          	subl   $0x1,-0x18(%ebp)
 804920d:	83 7d e8 00          	cmpl   $0x0,-0x18(%ebp)
 8049211:	74 06                	je     8049219 <std::__verify_grouping(char const*, unsigned int, std::string const&)+0xbf>
 8049213:	80 7d fb 00          	cmpb   $0x0,-0x5(%ebp)
 8049217:	75 ca                	jne    80491e3 <std::__verify_grouping(char const*, unsigned int, std::string const&)+0x89>
 8049219:	8b 45 f0             	mov    -0x10(%ebp),%eax
 804921c:	03 45 08             	add    0x8(%ebp),%eax
 804921f:	0f b6 00             	movzbl (%eax),%eax
 8049222:	84 c0                	test   %al,%al
 8049224:	7e 35                	jle    804925b <std::__verify_grouping(char const*, unsigned int, std::string const&)+0x101>
 8049226:	0f b6 5d fb          	movzbl -0x5(%ebp),%ebx
 804922a:	c7 44 24 04 00 00 00 	movl   $0x0,0x4(%esp)
 8049231:	00 
 8049232:	8b 45 10             	mov    0x10(%ebp),%eax
 8049235:	89 04 24             	mov    %eax,(%esp)
 8049238:	e8 f3 fa ff ff       	call   8048d30 <std::string::operator[](unsigned int) const@plt>
 804923d:	0f b6 10             	movzbl (%eax),%edx
 8049240:	8b 45 f0             	mov    -0x10(%ebp),%eax
 8049243:	03 45 08             	add    0x8(%ebp),%eax
 8049246:	0f b6 00             	movzbl (%eax),%eax
 8049249:	38 c2                	cmp    %al,%dl
 804924b:	0f 9e c0             	setle  %al
 804924e:	0f b6 c0             	movzbl %al,%eax
 8049251:	21 d8                	and    %ebx,%eax
 8049253:	85 c0                	test   %eax,%eax
 8049255:	0f 95 c0             	setne  %al
 8049258:	88 45 fb             	mov    %al,-0x5(%ebp)
 804925b:	0f b6 45 fb          	movzbl -0x5(%ebp),%eax
 804925f:	83 c4 34             	add    $0x34,%esp
 8049262:	5b                   	pop    %ebx
 8049263:	5d                   	pop    %ebp
 8049264:	c3                   	ret    
 8049265:	90                   	nop    

08049266 <__static_initialization_and_destruction_0(int, int)>:
 8049266:	55                   	push   %ebp
 8049267:	89 e5                	mov    %esp,%ebp
 8049269:	83 ec 18             	sub    $0x18,%esp
 804926c:	83 7d 08 01          	cmpl   $0x1,0x8(%ebp)
 8049270:	75 31                	jne    80492a3 <__static_initialization_and_destruction_0(int, int)+0x3d>
 8049272:	81 7d 0c ff ff 00 00 	cmpl   $0xffff,0xc(%ebp)
 8049279:	75 28                	jne    80492a3 <__static_initialization_and_destruction_0(int, int)+0x3d>
 804927b:	c7 04 24 d4 07 05 08 	movl   $0x80507d4,(%esp)
 8049282:	e8 f9 f9 ff ff       	call   8048c80 <std::ios_base::Init::Init()@plt>
 8049287:	c7 44 24 08 e4 01 05 	movl   $0x80501e4,0x8(%esp)
 804928e:	08 
 804928f:	c7 44 24 04 00 00 00 	movl   $0x0,0x4(%esp)
 8049296:	00 
 8049297:	c7 04 24 c2 92 04 08 	movl   $0x80492c2,(%esp)
 804929e:	e8 5d f9 ff ff       	call   8048c00 <__cxa_atexit@plt>
 80492a3:	c9                   	leave  
 80492a4:	c3                   	ret    
 80492a5:	90                   	nop    

080492a6 <global constructors keyed to gpop_size>:
 80492a6:	55                   	push   %ebp
 80492a7:	89 e5                	mov    %esp,%ebp
 80492a9:	83 ec 08             	sub    $0x8,%esp
 80492ac:	c7 44 24 04 ff ff 00 	movl   $0xffff,0x4(%esp)
 80492b3:	00 
 80492b4:	c7 04 24 01 00 00 00 	movl   $0x1,(%esp)
 80492bb:	e8 a6 ff ff ff       	call   8049266 <__static_initialization_and_destruction_0(int, int)>
 80492c0:	c9                   	leave  
 80492c1:	c3                   	ret    

080492c2 <__tcf_0>:
 80492c2:	55                   	push   %ebp
 80492c3:	89 e5                	mov    %esp,%ebp
 80492c5:	83 ec 08             	sub    $0x8,%esp
 80492c8:	c7 04 24 d4 07 05 08 	movl   $0x80507d4,(%esp)
 80492cf:	e8 ec f9 ff ff       	call   8048cc0 <std::ios_base::Init::~Init()@plt>
 80492d4:	c9                   	leave  
 80492d5:	c3                   	ret    

080492d6 <GAThread::get_delta(float)>:
 80492d6:	55                   	push   %ebp
 80492d7:	89 e5                	mov    %esp,%ebp
 80492d9:	83 ec 28             	sub    $0x28,%esp
 80492dc:	c7 45 f8 00 00 00 00 	movl   $0x0,-0x8(%ebp)
 80492e3:	8b 45 08             	mov    0x8(%ebp),%eax
 80492e6:	8b 40 28             	mov    0x28(%eax),%eax
 80492e9:	85 c0                	test   %eax,%eax
 80492eb:	75 0b                	jne    80492f8 <GAThread::get_delta(float)+0x22>
 80492ed:	d9 45 0c             	flds   0xc(%ebp)
 80492f0:	d9 5d e8             	fstps  -0x18(%ebp)
 80492f3:	e9 92 00 00 00       	jmp    804938a <GAThread::get_delta(float)+0xb4>
 80492f8:	d9 45 0c             	flds   0xc(%ebp)
 80492fb:	d9 05 70 f6 04 08    	flds   0x804f670
 8049301:	da e9                	fucompp 
 8049303:	df e0                	fnstsw %ax
 8049305:	9e                   	sahf   
 8049306:	73 02                	jae    804930a <GAThread::get_delta(float)+0x34>
 8049308:	eb 08                	jmp    8049312 <GAThread::get_delta(float)+0x3c>
 804930a:	b8 00 00 80 bf       	mov    $0xbf800000,%eax
 804930f:	89 45 0c             	mov    %eax,0xc(%ebp)
 8049312:	d9 45 0c             	flds   0xc(%ebp)
 8049315:	d9 e8                	fld1   
 8049317:	d9 c9                	fxch   %st(1)
 8049319:	da e9                	fucompp 
 804931b:	df e0                	fnstsw %ax
 804931d:	9e                   	sahf   
 804931e:	77 02                	ja     8049322 <GAThread::get_delta(float)+0x4c>
 8049320:	eb 08                	jmp    804932a <GAThread::get_delta(float)+0x54>
 8049322:	b8 00 00 80 3f       	mov    $0x3f800000,%eax
 8049327:	89 45 0c             	mov    %eax,0xc(%ebp)
 804932a:	d9 45 0c             	flds   0xc(%ebp)
 804932d:	d9 ee                	fldz   
 804932f:	da e9                	fucompp 
 8049331:	df e0                	fnstsw %ax
 8049333:	9e                   	sahf   
 8049334:	77 02                	ja     8049338 <GAThread::get_delta(float)+0x62>
 8049336:	eb 0f                	jmp    8049347 <GAThread::get_delta(float)+0x71>
 8049338:	d9 45 0c             	flds   0xc(%ebp)
 804933b:	d9 e0                	fchs   
 804933d:	d9 5d 0c             	fstps  0xc(%ebp)
 8049340:	c7 45 f8 01 00 00 00 	movl   $0x1,-0x8(%ebp)
 8049347:	8b 45 08             	mov    0x8(%ebp),%eax
 804934a:	d9 80 0c 10 00 00    	flds   0x100c(%eax)
 8049350:	d9 e8                	fld1   
 8049352:	de c1                	faddp  %st,%st(1)
 8049354:	d9 e8                	fld1   
 8049356:	de f1                	fdivp  %st,%st(1)
 8049358:	d9 45 0c             	flds   0xc(%ebp)
 804935b:	d9 e8                	fld1   
 804935d:	de e1                	fsubp  %st,%st(1)
 804935f:	d9 c9                	fxch   %st(1)
 8049361:	dd 5c 24 08          	fstpl  0x8(%esp)
 8049365:	dd 1c 24             	fstpl  (%esp)
 8049368:	e8 23 f9 ff ff       	call   8048c90 <pow@plt>
 804936d:	d9 e8                	fld1   
 804936f:	de e1                	fsubp  %st,%st(1)
 8049371:	d9 5d fc             	fstps  -0x4(%ebp)
 8049374:	83 7d f8 00          	cmpl   $0x0,-0x8(%ebp)
 8049378:	74 0a                	je     8049384 <GAThread::get_delta(float)+0xae>
 804937a:	d9 45 fc             	flds   -0x4(%ebp)
 804937d:	d9 e0                	fchs   
 804937f:	d9 5d e8             	fstps  -0x18(%ebp)
 8049382:	eb 06                	jmp    804938a <GAThread::get_delta(float)+0xb4>
 8049384:	d9 45 fc             	flds   -0x4(%ebp)
 8049387:	d9 5d e8             	fstps  -0x18(%ebp)
 804938a:	d9 45 e8             	flds   -0x18(%ebp)
 804938d:	c9                   	leave  
 804938e:	c3                   	ret    
 804938f:	90                   	nop    

08049390 <GAThread::get_beta(float)>:
 8049390:	55                   	push   %ebp
 8049391:	89 e5                	mov    %esp,%ebp
 8049393:	83 ec 28             	sub    $0x28,%esp
 8049396:	8b 45 08             	mov    0x8(%ebp),%eax
 8049399:	8b 40 28             	mov    0x28(%eax),%eax
 804939c:	85 c0                	test   %eax,%eax
 804939e:	75 0f                	jne    80493af <GAThread::get_beta(float)+0x1f>
 80493a0:	d9 45 0c             	flds   0xc(%ebp)
 80493a3:	d9 c0                	fld    %st(0)
 80493a5:	de c1                	faddp  %st,%st(1)
 80493a7:	d9 5d e8             	fstps  -0x18(%ebp)
 80493aa:	e9 a6 00 00 00       	jmp    8049455 <GAThread::get_beta(float)+0xc5>
 80493af:	d9 45 0c             	flds   0xc(%ebp)
 80493b2:	d9 e8                	fld1   
 80493b4:	de e1                	fsubp  %st,%st(1)
 80493b6:	dd 05 78 f6 04 08    	fldl   0x804f678
 80493bc:	da e9                	fucompp 
 80493be:	df e0                	fnstsw %ax
 80493c0:	9e                   	sahf   
 80493c1:	77 02                	ja     80493c5 <GAThread::get_beta(float)+0x35>
 80493c3:	eb 08                	jmp    80493cd <GAThread::get_beta(float)+0x3d>
 80493c5:	b8 ef ff 7f 3f       	mov    $0x3f7fffef,%eax
 80493ca:	89 45 0c             	mov    %eax,0xc(%ebp)
 80493cd:	d9 45 0c             	flds   0xc(%ebp)
 80493d0:	d9 ee                	fldz   
 80493d2:	da e9                	fucompp 
 80493d4:	df e0                	fnstsw %ax
 80493d6:	9e                   	sahf   
 80493d7:	77 02                	ja     80493db <GAThread::get_beta(float)+0x4b>
 80493d9:	eb 08                	jmp    80493e3 <GAThread::get_beta(float)+0x53>
 80493db:	b8 00 00 00 00       	mov    $0x0,%eax
 80493e0:	89 45 0c             	mov    %eax,0xc(%ebp)
 80493e3:	d9 45 0c             	flds   0xc(%ebp)
 80493e6:	d9 05 80 f6 04 08    	flds   0x804f680
 80493ec:	da e9                	fucompp 
 80493ee:	df e0                	fnstsw %ax
 80493f0:	9e                   	sahf   
 80493f1:	77 02                	ja     80493f5 <GAThread::get_beta(float)+0x65>
 80493f3:	eb 29                	jmp    804941e <GAThread::get_beta(float)+0x8e>
 80493f5:	8b 45 08             	mov    0x8(%ebp),%eax
 80493f8:	d9 80 08 10 00 00    	flds   0x1008(%eax)
 80493fe:	d9 e8                	fld1   
 8049400:	de c1                	faddp  %st,%st(1)
 8049402:	d9 e8                	fld1   
 8049404:	de f1                	fdivp  %st,%st(1)
 8049406:	d9 45 0c             	flds   0xc(%ebp)
 8049409:	d8 c0                	fadd   %st(0),%st
 804940b:	d9 c9                	fxch   %st(1)
 804940d:	dd 5c 24 08          	fstpl  0x8(%esp)
 8049411:	dd 1c 24             	fstpl  (%esp)
 8049414:	e8 77 f8 ff ff       	call   8048c90 <pow@plt>
 8049419:	d9 5d fc             	fstps  -0x4(%ebp)
 804941c:	eb 31                	jmp    804944f <GAThread::get_beta(float)+0xbf>
 804941e:	8b 45 08             	mov    0x8(%ebp),%eax
 8049421:	d9 80 08 10 00 00    	flds   0x1008(%eax)
 8049427:	d9 e8                	fld1   
 8049429:	de c1                	faddp  %st,%st(1)
 804942b:	d9 e8                	fld1   
 804942d:	de f1                	fdivp  %st,%st(1)
 804942f:	d9 45 0c             	flds   0xc(%ebp)
 8049432:	d9 e8                	fld1   
 8049434:	de e1                	fsubp  %st,%st(1)
 8049436:	dd 05 88 f6 04 08    	fldl   0x804f688
 804943c:	de f1                	fdivp  %st,%st(1)
 804943e:	d9 c9                	fxch   %st(1)
 8049440:	dd 5c 24 08          	fstpl  0x8(%esp)
 8049444:	dd 1c 24             	fstpl  (%esp)
 8049447:	e8 44 f8 ff ff       	call   8048c90 <pow@plt>
 804944c:	d9 5d fc             	fstps  -0x4(%ebp)
 804944f:	d9 45 fc             	flds   -0x4(%ebp)
 8049452:	d9 5d e8             	fstps  -0x18(%ebp)
 8049455:	d9 45 e8             	flds   -0x18(%ebp)
 8049458:	c9                   	leave  
 8049459:	c3                   	ret    

0804945a <free_pool()>:
 804945a:	55                   	push   %ebp
 804945b:	89 e5                	mov    %esp,%ebp
 804945d:	83 ec 18             	sub    $0x18,%esp
 8049460:	c7 45 fc 00 00 00 00 	movl   $0x0,-0x4(%ebp)
 8049467:	eb 46                	jmp    80494af <free_pool()+0x55>
 8049469:	8b 45 fc             	mov    -0x4(%ebp),%eax
 804946c:	69 c0 94 00 00 00    	imul   $0x94,%eax,%eax
 8049472:	89 c2                	mov    %eax,%edx
 8049474:	a1 04 07 05 08       	mov    0x8050704,%eax
 8049479:	8d 04 02             	lea    (%edx,%eax,1),%eax
 804947c:	8b 80 80 00 00 00    	mov    0x80(%eax),%eax
 8049482:	89 04 24             	mov    %eax,(%esp)
 8049485:	e8 56 f8 ff ff       	call   8048ce0 <free@plt>
 804948a:	8b 45 fc             	mov    -0x4(%ebp),%eax
 804948d:	69 c0 94 00 00 00    	imul   $0x94,%eax,%eax
 8049493:	89 c2                	mov    %eax,%edx
 8049495:	a1 04 07 05 08       	mov    0x8050704,%eax
 804949a:	8d 04 02             	lea    (%edx,%eax,1),%eax
 804949d:	8b 80 84 00 00 00    	mov    0x84(%eax),%eax
 80494a3:	89 04 24             	mov    %eax,(%esp)
 80494a6:	e8 35 f8 ff ff       	call   8048ce0 <free@plt>
 80494ab:	83 45 fc 01          	addl   $0x1,-0x4(%ebp)
 80494af:	a1 b4 07 05 08       	mov    0x80507b4,%eax
 80494b4:	39 45 fc             	cmp    %eax,-0x4(%ebp)
 80494b7:	7c b0                	jl     8049469 <free_pool()+0xf>
 80494b9:	a1 a0 07 05 08       	mov    0x80507a0,%eax
 80494be:	89 04 24             	mov    %eax,(%esp)
 80494c1:	e8 1a f8 ff ff       	call   8048ce0 <free@plt>
 80494c6:	a1 a4 07 05 08       	mov    0x80507a4,%eax
 80494cb:	89 04 24             	mov    %eax,(%esp)
 80494ce:	e8 0d f8 ff ff       	call   8048ce0 <free@plt>
 80494d3:	c9                   	leave  
 80494d4:	c3                   	ret    
 80494d5:	90                   	nop    

080494d6 <GAThread::free_all()>:
 80494d6:	55                   	push   %ebp
 80494d7:	89 e5                	mov    %esp,%ebp
 80494d9:	83 ec 18             	sub    $0x18,%esp
 80494dc:	c7 45 fc 00 00 00 00 	movl   $0x0,-0x4(%ebp)
 80494e3:	e9 90 00 00 00       	jmp    8049578 <GAThread::free_all()+0xa2>
 80494e8:	8b 45 08             	mov    0x8(%ebp),%eax
 80494eb:	8b 90 0c 12 00 00    	mov    0x120c(%eax),%edx
 80494f1:	8b 45 fc             	mov    -0x4(%ebp),%eax
 80494f4:	69 c0 94 00 00 00    	imul   $0x94,%eax,%eax
 80494fa:	8d 04 02             	lea    (%edx,%eax,1),%eax
 80494fd:	8b 80 80 00 00 00    	mov    0x80(%eax),%eax
 8049503:	89 04 24             	mov    %eax,(%esp)
 8049506:	e8 d5 f7 ff ff       	call   8048ce0 <free@plt>
 804950b:	8b 45 08             	mov    0x8(%ebp),%eax
 804950e:	8b 90 10 12 00 00    	mov    0x1210(%eax),%edx
 8049514:	8b 45 fc             	mov    -0x4(%ebp),%eax
 8049517:	69 c0 94 00 00 00    	imul   $0x94,%eax,%eax
 804951d:	8d 04 02             	lea    (%edx,%eax,1),%eax
 8049520:	8b 80 80 00 00 00    	mov    0x80(%eax),%eax
 8049526:	89 04 24             	mov    %eax,(%esp)
 8049529:	e8 b2 f7 ff ff       	call   8048ce0 <free@plt>
 804952e:	8b 45 08             	mov    0x8(%ebp),%eax
 8049531:	8b 90 0c 12 00 00    	mov    0x120c(%eax),%edx
 8049537:	8b 45 fc             	mov    -0x4(%ebp),%eax
 804953a:	69 c0 94 00 00 00    	imul   $0x94,%eax,%eax
 8049540:	8d 04 02             	lea    (%edx,%eax,1),%eax
 8049543:	8b 80 84 00 00 00    	mov    0x84(%eax),%eax
 8049549:	89 04 24             	mov    %eax,(%esp)
 804954c:	e8 8f f7 ff ff       	call   8048ce0 <free@plt>
 8049551:	8b 45 08             	mov    0x8(%ebp),%eax
 8049554:	8b 90 10 12 00 00    	mov    0x1210(%eax),%edx
 804955a:	8b 45 fc             	mov    -0x4(%ebp),%eax
 804955d:	69 c0 94 00 00 00    	imul   $0x94,%eax,%eax
 8049563:	8d 04 02             	lea    (%edx,%eax,1),%eax
 8049566:	8b 80 84 00 00 00    	mov    0x84(%eax),%eax
 804956c:	89 04 24             	mov    %eax,(%esp)
 804956f:	e8 6c f7 ff ff       	call   8048ce0 <free@plt>
 8049574:	83 45 fc 01          	addl   $0x1,-0x4(%ebp)
 8049578:	8b 45 08             	mov    0x8(%ebp),%eax
 804957b:	8b 00                	mov    (%eax),%eax
 804957d:	3b 45 fc             	cmp    -0x4(%ebp),%eax
 8049580:	0f 8f 62 ff ff ff    	jg     80494e8 <GAThread::free_all()+0x12>
 8049586:	8b 45 08             	mov    0x8(%ebp),%eax
 8049589:	8b 80 0c 12 00 00    	mov    0x120c(%eax),%eax
 804958f:	89 04 24             	mov    %eax,(%esp)
 8049592:	e8 49 f7 ff ff       	call   8048ce0 <free@plt>
 8049597:	8b 45 08             	mov    0x8(%ebp),%eax
 804959a:	8b 80 10 12 00 00    	mov    0x1210(%eax),%eax
 80495a0:	89 04 24             	mov    %eax,(%esp)
 80495a3:	e8 38 f7 ff ff       	call   8048ce0 <free@plt>
 80495a8:	8b 45 08             	mov    0x8(%ebp),%eax
 80495ab:	8b 80 94 12 00 00    	mov    0x1294(%eax),%eax
 80495b1:	89 04 24             	mov    %eax,(%esp)
 80495b4:	e8 27 f7 ff ff       	call   8048ce0 <free@plt>
 80495b9:	8b 45 08             	mov    0x8(%ebp),%eax
 80495bc:	8b 80 98 12 00 00    	mov    0x1298(%eax),%eax
 80495c2:	89 04 24             	mov    %eax,(%esp)
 80495c5:	e8 16 f7 ff ff       	call   8048ce0 <free@plt>
 80495ca:	c9                   	leave  
 80495cb:	c3                   	ret    

080495cc <error_ptr_null(char const*)>:
 80495cc:	55                   	push   %ebp
 80495cd:	89 e5                	mov    %esp,%ebp
 80495cf:	83 ec 08             	sub    $0x8,%esp
 80495d2:	8b 45 08             	mov    0x8(%ebp),%eax
 80495d5:	89 44 24 04          	mov    %eax,0x4(%esp)
 80495d9:	c7 04 24 30 e8 04 08 	movl   $0x804e830,(%esp)
 80495e0:	e8 8b f7 ff ff       	call   8048d70 <printf@plt>
 80495e5:	c7 04 24 53 e8 04 08 	movl   $0x804e853,(%esp)
 80495ec:	e8 7f f7 ff ff       	call   8048d70 <printf@plt>
 80495f1:	c7 04 24 ff ff ff ff 	movl   $0xffffffff,(%esp)
 80495f8:	e8 a3 f8 ff ff       	call   8048ea0 <exit@plt>
 80495fd:	90                   	nop    

080495fe <GAThread::objective(float*)>:
 80495fe:	55                   	push   %ebp
 80495ff:	89 e5                	mov    %esp,%ebp
 8049601:	83 ec 38             	sub    $0x38,%esp
 8049604:	83 7d 0c 00          	cmpl   $0x0,0xc(%ebp)
 8049608:	75 0c                	jne    8049616 <GAThread::objective(float*)+0x18>
 804960a:	c7 04 24 6e e8 04 08 	movl   $0x804e86e,(%esp)
 8049611:	e8 b6 ff ff ff       	call   80495cc <error_ptr_null(char const*)>
 8049616:	8b 45 08             	mov    0x8(%ebp),%eax
 8049619:	c7 80 fc 0f 00 00 ff 	movl   $0xffffffff,0xffc(%eax)
 8049620:	ff ff ff 
 8049623:	8b 45 0c             	mov    0xc(%ebp),%eax
 8049626:	d9 00                	flds   (%eax)
 8049628:	d9 ee                	fldz   
 804962a:	da e9                	fucompp 
 804962c:	df e0                	fnstsw %ax
 804962e:	9e                   	sahf   
 804962f:	77 02                	ja     8049633 <GAThread::objective(float*)+0x35>
 8049631:	eb 0c                	jmp    804963f <GAThread::objective(float*)+0x41>
 8049633:	8b 45 0c             	mov    0xc(%ebp),%eax
 8049636:	d9 00                	flds   (%eax)
 8049638:	d9 e0                	fchs   
 804963a:	d9 5d dc             	fstps  -0x24(%ebp)
 804963d:	eb 08                	jmp    8049647 <GAThread::objective(float*)+0x49>
 804963f:	8b 45 0c             	mov    0xc(%ebp),%eax
 8049642:	d9 00                	flds   (%eax)
 8049644:	d9 5d dc             	fstps  -0x24(%ebp)
 8049647:	8b 45 dc             	mov    -0x24(%ebp),%eax
 804964a:	89 45 d8             	mov    %eax,-0x28(%ebp)
 804964d:	d9 45 d8             	flds   -0x28(%ebp)
 8049650:	c9                   	leave  
 8049651:	c3                   	ret    

08049652 <GAThread::decodevalue(unsigned int*, double*)>:
 8049652:	55                   	push   %ebp
 8049653:	89 e5                	mov    %esp,%ebp
 8049655:	83 ec 48             	sub    $0x48,%esp
 8049658:	c7 45 e8 01 00 00 00 	movl   $0x1,-0x18(%ebp)
 804965f:	8b 45 08             	mov    0x8(%ebp),%eax
 8049662:	8b 40 48             	mov    0x48(%eax),%eax
 8049665:	85 c0                	test   %eax,%eax
 8049667:	0f 84 18 01 00 00    	je     8049785 <GAThread::decodevalue(unsigned int*, double*)+0x133>
 804966d:	83 7d 0c 00          	cmpl   $0x0,0xc(%ebp)
 8049671:	75 0c                	jne    804967f <GAThread::decodevalue(unsigned int*, double*)+0x2d>
 8049673:	c7 04 24 7f e8 04 08 	movl   $0x804e87f,(%esp)
 804967a:	e8 4d ff ff ff       	call   80495cc <error_ptr_null(char const*)>
 804967f:	8b 45 08             	mov    0x8(%ebp),%eax
 8049682:	8b 50 20             	mov    0x20(%eax),%edx
 8049685:	8b 45 08             	mov    0x8(%ebp),%eax
 8049688:	8b 40 1c             	mov    0x1c(%eax),%eax
 804968b:	89 c1                	mov    %eax,%ecx
 804968d:	89 d0                	mov    %edx,%eax
 804968f:	c1 fa 1f             	sar    $0x1f,%edx
 8049692:	f7 f9                	idiv   %ecx
 8049694:	89 45 e0             	mov    %eax,-0x20(%ebp)
 8049697:	c7 45 fc 00 00 00 00 	movl   $0x0,-0x4(%ebp)
 804969e:	e9 d3 00 00 00       	jmp    8049776 <GAThread::decodevalue(unsigned int*, double*)+0x124>
 80496a3:	8b 45 08             	mov    0x8(%ebp),%eax
 80496a6:	8b 40 24             	mov    0x24(%eax),%eax
 80496a9:	83 e8 01             	sub    $0x1,%eax
 80496ac:	3b 45 fc             	cmp    -0x4(%ebp),%eax
 80496af:	75 19                	jne    80496ca <GAThread::decodevalue(unsigned int*, double*)+0x78>
 80496b1:	8b 45 08             	mov    0x8(%ebp),%eax
 80496b4:	8b 40 20             	mov    0x20(%eax),%eax
 80496b7:	89 c2                	mov    %eax,%edx
 80496b9:	8b 45 fc             	mov    -0x4(%ebp),%eax
 80496bc:	c1 e0 05             	shl    $0x5,%eax
 80496bf:	89 d1                	mov    %edx,%ecx
 80496c1:	29 c1                	sub    %eax,%ecx
 80496c3:	89 c8                	mov    %ecx,%eax
 80496c5:	89 45 f4             	mov    %eax,-0xc(%ebp)
 80496c8:	eb 07                	jmp    80496d1 <GAThread::decodevalue(unsigned int*, double*)+0x7f>
 80496ca:	c7 45 f4 20 00 00 00 	movl   $0x20,-0xc(%ebp)
 80496d1:	8b 45 fc             	mov    -0x4(%ebp),%eax
 80496d4:	c1 e0 02             	shl    $0x2,%eax
 80496d7:	03 45 0c             	add    0xc(%ebp),%eax
 80496da:	8b 00                	mov    (%eax),%eax
 80496dc:	89 45 f0             	mov    %eax,-0x10(%ebp)
 80496df:	c7 45 f8 00 00 00 00 	movl   $0x0,-0x8(%ebp)
 80496e6:	eb 7e                	jmp    8049766 <GAThread::decodevalue(unsigned int*, double*)+0x114>
 80496e8:	8b 45 fc             	mov    -0x4(%ebp),%eax
 80496eb:	89 c2                	mov    %eax,%edx
 80496ed:	c1 e2 05             	shl    $0x5,%edx
 80496f0:	8b 45 f8             	mov    -0x8(%ebp),%eax
 80496f3:	8d 04 02             	lea    (%edx,%eax,1),%eax
 80496f6:	89 45 ec             	mov    %eax,-0x14(%ebp)
 80496f9:	8b 45 e8             	mov    -0x18(%ebp),%eax
 80496fc:	23 45 f0             	and    -0x10(%ebp),%eax
 80496ff:	83 f8 01             	cmp    $0x1,%eax
 8049702:	75 5b                	jne    804975f <GAThread::decodevalue(unsigned int*, double*)+0x10d>
 8049704:	8b 55 ec             	mov    -0x14(%ebp),%edx
 8049707:	89 d0                	mov    %edx,%eax
 8049709:	c1 fa 1f             	sar    $0x1f,%edx
 804970c:	f7 7d e0             	idivl  -0x20(%ebp)
 804970f:	89 45 e4             	mov    %eax,-0x1c(%ebp)
 8049712:	8b 45 e4             	mov    -0x1c(%ebp),%eax
 8049715:	0f af 45 e0          	imul   -0x20(%ebp),%eax
 8049719:	29 45 ec             	sub    %eax,-0x14(%ebp)
 804971c:	8b 55 ec             	mov    -0x14(%ebp),%edx
 804971f:	8b 45 e0             	mov    -0x20(%ebp),%eax
 8049722:	29 d0                	sub    %edx,%eax
 8049724:	83 e8 01             	sub    $0x1,%eax
 8049727:	50                   	push   %eax
 8049728:	db 04 24             	fildl  (%esp)
 804972b:	8d 64 24 04          	lea    0x4(%esp),%esp
 804972f:	dd 5c 24 08          	fstpl  0x8(%esp)
 8049733:	dd 05 90 f6 04 08    	fldl   0x804f690
 8049739:	dd 1c 24             	fstpl  (%esp)
 804973c:	e8 4f f5 ff ff       	call   8048c90 <pow@plt>
 8049741:	dd 5d d8             	fstpl  -0x28(%ebp)
 8049744:	8b 45 e4             	mov    -0x1c(%ebp),%eax
 8049747:	c1 e0 03             	shl    $0x3,%eax
 804974a:	89 c2                	mov    %eax,%edx
 804974c:	03 55 10             	add    0x10(%ebp),%edx
 804974f:	8b 45 e4             	mov    -0x1c(%ebp),%eax
 8049752:	c1 e0 03             	shl    $0x3,%eax
 8049755:	03 45 10             	add    0x10(%ebp),%eax
 8049758:	dd 00                	fldl   (%eax)
 804975a:	dc 45 d8             	faddl  -0x28(%ebp)
 804975d:	dd 1a                	fstpl  (%edx)
 804975f:	d1 7d f0             	sarl   -0x10(%ebp)
 8049762:	83 45 f8 01          	addl   $0x1,-0x8(%ebp)
 8049766:	8b 45 f8             	mov    -0x8(%ebp),%eax
 8049769:	3b 45 f4             	cmp    -0xc(%ebp),%eax
 804976c:	0f 8c 76 ff ff ff    	jl     80496e8 <GAThread::decodevalue(unsigned int*, double*)+0x96>
 8049772:	83 45 fc 01          	addl   $0x1,-0x4(%ebp)
 8049776:	8b 45 08             	mov    0x8(%ebp),%eax
 8049779:	8b 40 24             	mov    0x24(%eax),%eax
 804977c:	3b 45 fc             	cmp    -0x4(%ebp),%eax
 804977f:	0f 8f 1e ff ff ff    	jg     80496a3 <GAThread::decodevalue(unsigned int*, double*)+0x51>
 8049785:	c9                   	leave  
 8049786:	c3                   	ret    
 8049787:	90                   	nop    

08049788 <GAThread::decode_string(indiv*)>:
 8049788:	55                   	push   %ebp
 8049789:	89 e5                	mov    %esp,%ebp
 804978b:	83 ec 28             	sub    $0x28,%esp
 804978e:	83 7d 0c 00          	cmpl   $0x0,0xc(%ebp)
 8049792:	75 0c                	jne    80497a0 <GAThread::decode_string(indiv*)+0x18>
 8049794:	c7 04 24 94 e8 04 08 	movl   $0x804e894,(%esp)
 804979b:	e8 2c fe ff ff       	call   80495cc <error_ptr_null(char const*)>
 80497a0:	8b 45 08             	mov    0x8(%ebp),%eax
 80497a3:	8b 40 48             	mov    0x48(%eax),%eax
 80497a6:	85 c0                	test   %eax,%eax
 80497a8:	0f 84 1b 01 00 00    	je     80498c9 <GAThread::decode_string(indiv*)+0x141>
 80497ae:	8b 45 08             	mov    0x8(%ebp),%eax
 80497b1:	8b 40 1c             	mov    0x1c(%eax),%eax
 80497b4:	c1 e0 03             	shl    $0x3,%eax
 80497b7:	89 04 24             	mov    %eax,(%esp)
 80497ba:	e8 21 f6 ff ff       	call   8048de0 <malloc@plt>
 80497bf:	89 45 fc             	mov    %eax,-0x4(%ebp)
 80497c2:	c7 45 f8 00 00 00 00 	movl   $0x0,-0x8(%ebp)
 80497c9:	eb 11                	jmp    80497dc <GAThread::decode_string(indiv*)+0x54>
 80497cb:	8b 45 f8             	mov    -0x8(%ebp),%eax
 80497ce:	c1 e0 03             	shl    $0x3,%eax
 80497d1:	03 45 fc             	add    -0x4(%ebp),%eax
 80497d4:	d9 ee                	fldz   
 80497d6:	dd 18                	fstpl  (%eax)
 80497d8:	83 45 f8 01          	addl   $0x1,-0x8(%ebp)
 80497dc:	8b 45 08             	mov    0x8(%ebp),%eax
 80497df:	8b 40 1c             	mov    0x1c(%eax),%eax
 80497e2:	83 e8 01             	sub    $0x1,%eax
 80497e5:	3b 45 f8             	cmp    -0x8(%ebp),%eax
 80497e8:	7d e1                	jge    80497cb <GAThread::decode_string(indiv*)+0x43>
 80497ea:	8b 45 0c             	mov    0xc(%ebp),%eax
 80497ed:	8b 90 80 00 00 00    	mov    0x80(%eax),%edx
 80497f3:	8b 45 fc             	mov    -0x4(%ebp),%eax
 80497f6:	89 44 24 08          	mov    %eax,0x8(%esp)
 80497fa:	89 54 24 04          	mov    %edx,0x4(%esp)
 80497fe:	8b 45 08             	mov    0x8(%ebp),%eax
 8049801:	89 04 24             	mov    %eax,(%esp)
 8049804:	e8 49 fe ff ff       	call   8049652 <GAThread::decodevalue(unsigned int*, double*)>
 8049809:	8b 45 08             	mov    0x8(%ebp),%eax
 804980c:	8b 50 20             	mov    0x20(%eax),%edx
 804980f:	8b 45 08             	mov    0x8(%ebp),%eax
 8049812:	8b 40 1c             	mov    0x1c(%eax),%eax
 8049815:	89 c1                	mov    %eax,%ecx
 8049817:	89 d0                	mov    %edx,%eax
 8049819:	c1 fa 1f             	sar    $0x1f,%edx
 804981c:	f7 f9                	idiv   %ecx
 804981e:	50                   	push   %eax
 804981f:	db 04 24             	fildl  (%esp)
 8049822:	8d 64 24 04          	lea    0x4(%esp),%esp
 8049826:	dd 5c 24 08          	fstpl  0x8(%esp)
 804982a:	dd 05 90 f6 04 08    	fldl   0x804f690
 8049830:	dd 1c 24             	fstpl  (%esp)
 8049833:	e8 58 f4 ff ff       	call   8048c90 <pow@plt>
 8049838:	d9 e8                	fld1   
 804983a:	de e9                	fsubrp %st,%st(1)
 804983c:	dd 5d f0             	fstpl  -0x10(%ebp)
 804983f:	c7 45 f8 00 00 00 00 	movl   $0x0,-0x8(%ebp)
 8049846:	eb 68                	jmp    80498b0 <GAThread::decode_string(indiv*)+0x128>
 8049848:	8b 45 f8             	mov    -0x8(%ebp),%eax
 804984b:	c1 e0 03             	shl    $0x3,%eax
 804984e:	89 c2                	mov    %eax,%edx
 8049850:	03 55 fc             	add    -0x4(%ebp),%edx
 8049853:	8b 45 f8             	mov    -0x8(%ebp),%eax
 8049856:	c1 e0 03             	shl    $0x3,%eax
 8049859:	03 45 fc             	add    -0x4(%ebp),%eax
 804985c:	dd 00                	fldl   (%eax)
 804985e:	dc 75 f0             	fdivl  -0x10(%ebp)
 8049861:	dd 1a                	fstpl  (%edx)
 8049863:	8b 4d f8             	mov    -0x8(%ebp),%ecx
 8049866:	8b 45 f8             	mov    -0x8(%ebp),%eax
 8049869:	c1 e0 03             	shl    $0x3,%eax
 804986c:	03 45 fc             	add    -0x4(%ebp),%eax
 804986f:	dd 00                	fldl   (%eax)
 8049871:	8b 55 f8             	mov    -0x8(%ebp),%edx
 8049874:	8b 45 08             	mov    0x8(%ebp),%eax
 8049877:	d9 84 90 90 11 00 00 	flds   0x1190(%eax,%edx,4)
 804987e:	de c9                	fmulp  %st,%st(1)
 8049880:	8b 45 f8             	mov    -0x8(%ebp),%eax
 8049883:	c1 e0 03             	shl    $0x3,%eax
 8049886:	03 45 fc             	add    -0x4(%ebp),%eax
 8049889:	dd 00                	fldl   (%eax)
 804988b:	d9 e8                	fld1   
 804988d:	de e1                	fsubp  %st,%st(1)
 804988f:	8b 55 f8             	mov    -0x8(%ebp),%edx
 8049892:	8b 45 08             	mov    0x8(%ebp),%eax
 8049895:	d9 84 90 18 11 00 00 	flds   0x1118(%eax,%edx,4)
 804989c:	de c9                	fmulp  %st,%st(1)
 804989e:	de c1                	faddp  %st,%st(1)
 80498a0:	d9 5d ec             	fstps  -0x14(%ebp)
 80498a3:	d9 45 ec             	flds   -0x14(%ebp)
 80498a6:	8b 45 0c             	mov    0xc(%ebp),%eax
 80498a9:	d9 1c 88             	fstps  (%eax,%ecx,4)
 80498ac:	83 45 f8 01          	addl   $0x1,-0x8(%ebp)
 80498b0:	8b 45 08             	mov    0x8(%ebp),%eax
 80498b3:	8b 40 1c             	mov    0x1c(%eax),%eax
 80498b6:	83 e8 01             	sub    $0x1,%eax
 80498b9:	3b 45 f8             	cmp    -0x8(%ebp),%eax
 80498bc:	7d 8a                	jge    8049848 <GAThread::decode_string(indiv*)+0xc0>
 80498be:	8b 45 fc             	mov    -0x4(%ebp),%eax
 80498c1:	89 04 24             	mov    %eax,(%esp)
 80498c4:	e8 17 f4 ff ff       	call   8048ce0 <free@plt>
 80498c9:	c9                   	leave  
 80498ca:	c3                   	ret    
 80498cb:	90                   	nop    

080498cc <copy_individual(indiv*, indiv*, int)>:
 80498cc:	55                   	push   %ebp
 80498cd:	89 e5                	mov    %esp,%ebp
 80498cf:	83 ec 18             	sub    $0x18,%esp
 80498d2:	83 7d 08 00          	cmpl   $0x0,0x8(%ebp)
 80498d6:	75 0c                	jne    80498e4 <copy_individual(indiv*, indiv*, int)+0x18>
 80498d8:	c7 04 24 af e8 04 08 	movl   $0x804e8af,(%esp)
 80498df:	e8 e8 fc ff ff       	call   80495cc <error_ptr_null(char const*)>
 80498e4:	83 7d 0c 00          	cmpl   $0x0,0xc(%ebp)
 80498e8:	75 0c                	jne    80498f6 <copy_individual(indiv*, indiv*, int)+0x2a>
 80498ea:	c7 04 24 c9 e8 04 08 	movl   $0x804e8c9,(%esp)
 80498f1:	e8 d6 fc ff ff       	call   80495cc <error_ptr_null(char const*)>
 80498f6:	c7 45 fc 00 00 00 00 	movl   $0x0,-0x4(%ebp)
 80498fd:	eb 16                	jmp    8049915 <copy_individual(indiv*, indiv*, int)+0x49>
 80498ff:	8b 4d fc             	mov    -0x4(%ebp),%ecx
 8049902:	8b 55 fc             	mov    -0x4(%ebp),%edx
 8049905:	8b 45 08             	mov    0x8(%ebp),%eax
 8049908:	8b 14 90             	mov    (%eax,%edx,4),%edx
 804990b:	8b 45 0c             	mov    0xc(%ebp),%eax
 804990e:	89 14 88             	mov    %edx,(%eax,%ecx,4)
 8049911:	83 45 fc 01          	addl   $0x1,-0x4(%ebp)
 8049915:	83 7d fc 1d          	cmpl   $0x1d,-0x4(%ebp)
 8049919:	7e e4                	jle    80498ff <copy_individual(indiv*, indiv*, int)+0x33>
 804991b:	8b 45 08             	mov    0x8(%ebp),%eax
 804991e:	8b 50 7c             	mov    0x7c(%eax),%edx
 8049921:	8b 45 0c             	mov    0xc(%ebp),%eax
 8049924:	89 50 7c             	mov    %edx,0x7c(%eax)
 8049927:	8b 45 08             	mov    0x8(%ebp),%eax
 804992a:	8b 50 78             	mov    0x78(%eax),%edx
 804992d:	8b 45 0c             	mov    0xc(%ebp),%eax
 8049930:	89 50 78             	mov    %edx,0x78(%eax)
 8049933:	8b 45 08             	mov    0x8(%ebp),%eax
 8049936:	8b 90 88 00 00 00    	mov    0x88(%eax),%edx
 804993c:	8b 45 0c             	mov    0xc(%ebp),%eax
 804993f:	89 90 88 00 00 00    	mov    %edx,0x88(%eax)
 8049945:	8b 45 08             	mov    0x8(%ebp),%eax
 8049948:	8b 90 8c 00 00 00    	mov    0x8c(%eax),%edx
 804994e:	8b 45 0c             	mov    0xc(%ebp),%eax
 8049951:	89 90 8c 00 00 00    	mov    %edx,0x8c(%eax)
 8049957:	8b 45 08             	mov    0x8(%ebp),%eax
 804995a:	8b 90 90 00 00 00    	mov    0x90(%eax),%edx
 8049960:	8b 45 0c             	mov    0xc(%ebp),%eax
 8049963:	89 90 90 00 00 00    	mov    %edx,0x90(%eax)
 8049969:	c7 45 fc 00 00 00 00 	movl   $0x0,-0x4(%ebp)
 8049970:	eb 2c                	jmp    804999e <copy_individual(indiv*, indiv*, int)+0xd2>
 8049972:	8b 45 0c             	mov    0xc(%ebp),%eax
 8049975:	8b 90 80 00 00 00    	mov    0x80(%eax),%edx
 804997b:	8b 45 fc             	mov    -0x4(%ebp),%eax
 804997e:	c1 e0 02             	shl    $0x2,%eax
 8049981:	8d 0c 02             	lea    (%edx,%eax,1),%ecx
 8049984:	8b 45 08             	mov    0x8(%ebp),%eax
 8049987:	8b 90 80 00 00 00    	mov    0x80(%eax),%edx
 804998d:	8b 45 fc             	mov    -0x4(%ebp),%eax
 8049990:	c1 e0 02             	shl    $0x2,%eax
 8049993:	8d 04 02             	lea    (%edx,%eax,1),%eax
 8049996:	8b 00                	mov    (%eax),%eax
 8049998:	89 01                	mov    %eax,(%ecx)
 804999a:	83 45 fc 01          	addl   $0x1,-0x4(%ebp)
 804999e:	8b 45 fc             	mov    -0x4(%ebp),%eax
 80499a1:	3b 45 10             	cmp    0x10(%ebp),%eax
 80499a4:	7c cc                	jl     8049972 <copy_individual(indiv*, indiv*, int)+0xa6>
 80499a6:	c7 45 fc 00 00 00 00 	movl   $0x0,-0x4(%ebp)
 80499ad:	eb 2c                	jmp    80499db <copy_individual(indiv*, indiv*, int)+0x10f>
 80499af:	8b 45 0c             	mov    0xc(%ebp),%eax
 80499b2:	8b 90 84 00 00 00    	mov    0x84(%eax),%edx
 80499b8:	8b 45 fc             	mov    -0x4(%ebp),%eax
 80499bb:	c1 e0 02             	shl    $0x2,%eax
 80499be:	8d 0c 02             	lea    (%edx,%eax,1),%ecx
 80499c1:	8b 45 08             	mov    0x8(%ebp),%eax
 80499c4:	8b 90 84 00 00 00    	mov    0x84(%eax),%edx
 80499ca:	8b 45 fc             	mov    -0x4(%ebp),%eax
 80499cd:	c1 e0 02             	shl    $0x2,%eax
 80499d0:	8d 04 02             	lea    (%edx,%eax,1),%eax
 80499d3:	8b 00                	mov    (%eax),%eax
 80499d5:	89 01                	mov    %eax,(%ecx)
 80499d7:	83 45 fc 01          	addl   $0x1,-0x4(%ebp)
 80499db:	83 7d fc 07          	cmpl   $0x7,-0x4(%ebp)
 80499df:	7e ce                	jle    80499af <copy_individual(indiv*, indiv*, int)+0xe3>
 80499e1:	c9                   	leave  
 80499e2:	c3                   	ret    
 80499e3:	90                   	nop    

080499e4 <nomemory(char const*)>:
 80499e4:	55                   	push   %ebp
 80499e5:	89 e5                	mov    %esp,%ebp
 80499e7:	83 ec 08             	sub    $0x8,%esp
 80499ea:	8b 45 08             	mov    0x8(%ebp),%eax
 80499ed:	89 44 24 04          	mov    %eax,0x4(%esp)
 80499f1:	c7 04 24 e4 e8 04 08 	movl   $0x804e8e4,(%esp)
 80499f8:	e8 73 f3 ff ff       	call   8048d70 <printf@plt>
 80499fd:	c7 04 24 53 e8 04 08 	movl   $0x804e853,(%esp)
 8049a04:	e8 67 f3 ff ff       	call   8048d70 <printf@plt>
 8049a09:	c7 04 24 ff ff ff ff 	movl   $0xffffffff,(%esp)
 8049a10:	e8 8b f4 ff ff       	call   8048ea0 <exit@plt>
 8049a15:	90                   	nop    

08049a16 <initreport(_IO_FILE*)>:
 8049a16:	55                   	push   %ebp
 8049a17:	89 e5                	mov    %esp,%ebp
 8049a19:	83 ec 38             	sub    $0x38,%esp
 8049a1c:	83 7d 08 00          	cmpl   $0x0,0x8(%ebp)
 8049a20:	75 0c                	jne    8049a2e <initreport(_IO_FILE*)+0x18>
 8049a22:	c7 04 24 08 e9 04 08 	movl   $0x804e908,(%esp)
 8049a29:	e8 9e fb ff ff       	call   80495cc <error_ptr_null(char const*)>
 8049a2e:	8b 45 08             	mov    0x8(%ebp),%eax
 8049a31:	89 44 24 0c          	mov    %eax,0xc(%esp)
 8049a35:	c7 44 24 08 2f 00 00 	movl   $0x2f,0x8(%esp)
 8049a3c:	00 
 8049a3d:	c7 44 24 04 01 00 00 	movl   $0x1,0x4(%esp)
 8049a44:	00 
 8049a45:	c7 04 24 20 e9 04 08 	movl   $0x804e920,(%esp)
 8049a4c:	e8 4f f3 ff ff       	call   8048da0 <fwrite@plt>
 8049a51:	8b 45 08             	mov    0x8(%ebp),%eax
 8049a54:	89 44 24 0c          	mov    %eax,0xc(%esp)
 8049a58:	c7 44 24 08 2e 00 00 	movl   $0x2e,0x8(%esp)
 8049a5f:	00 
 8049a60:	c7 44 24 04 01 00 00 	movl   $0x1,0x4(%esp)
 8049a67:	00 
 8049a68:	c7 04 24 50 e9 04 08 	movl   $0x804e950,(%esp)
 8049a6f:	e8 2c f3 ff ff       	call   8048da0 <fwrite@plt>
 8049a74:	8b 45 08             	mov    0x8(%ebp),%eax
 8049a77:	89 44 24 0c          	mov    %eax,0xc(%esp)
 8049a7b:	c7 44 24 08 2e 00 00 	movl   $0x2e,0x8(%esp)
 8049a82:	00 
 8049a83:	c7 44 24 04 01 00 00 	movl   $0x1,0x4(%esp)
 8049a8a:	00 
 8049a8b:	c7 04 24 80 e9 04 08 	movl   $0x804e980,(%esp)
 8049a92:	e8 09 f3 ff ff       	call   8048da0 <fwrite@plt>
 8049a97:	a1 b8 04 05 08       	mov    0x80504b8,%eax
 8049a9c:	85 c0                	test   %eax,%eax
 8049a9e:	74 23                	je     8049ac3 <initreport(_IO_FILE*)+0xad>
 8049aa0:	8b 45 08             	mov    0x8(%ebp),%eax
 8049aa3:	89 44 24 0c          	mov    %eax,0xc(%esp)
 8049aa7:	c7 44 24 08 12 00 00 	movl   $0x12,0x8(%esp)
 8049aae:	00 
 8049aaf:	c7 44 24 04 01 00 00 	movl   $0x1,0x4(%esp)
 8049ab6:	00 
 8049ab7:	c7 04 24 af e9 04 08 	movl   $0x804e9af,(%esp)
 8049abe:	e8 dd f2 ff ff       	call   8048da0 <fwrite@plt>
 8049ac3:	a1 bc 04 05 08       	mov    0x80504bc,%eax
 8049ac8:	85 c0                	test   %eax,%eax
 8049aca:	74 52                	je     8049b1e <initreport(_IO_FILE*)+0x108>
 8049acc:	a1 9c 04 05 08       	mov    0x805049c,%eax
 8049ad1:	83 f8 01             	cmp    $0x1,%eax
 8049ad4:	75 25                	jne    8049afb <initreport(_IO_FILE*)+0xe5>
 8049ad6:	8b 45 08             	mov    0x8(%ebp),%eax
 8049ad9:	89 44 24 0c          	mov    %eax,0xc(%esp)
 8049add:	c7 44 24 08 15 00 00 	movl   $0x15,0x8(%esp)
 8049ae4:	00 
 8049ae5:	c7 44 24 04 01 00 00 	movl   $0x1,0x4(%esp)
 8049aec:	00 
 8049aed:	c7 04 24 c2 e9 04 08 	movl   $0x804e9c2,(%esp)
 8049af4:	e8 a7 f2 ff ff       	call   8048da0 <fwrite@plt>
 8049af9:	eb 23                	jmp    8049b1e <initreport(_IO_FILE*)+0x108>
 8049afb:	8b 45 08             	mov    0x8(%ebp),%eax
 8049afe:	89 44 24 0c          	mov    %eax,0xc(%esp)
 8049b02:	c7 44 24 08 15 00 00 	movl   $0x15,0x8(%esp)
 8049b09:	00 
 8049b0a:	c7 44 24 04 01 00 00 	movl   $0x1,0x4(%esp)
 8049b11:	00 
 8049b12:	c7 04 24 d8 e9 04 08 	movl   $0x804e9d8,(%esp)
 8049b19:	e8 82 f2 ff ff       	call   8048da0 <fwrite@plt>
 8049b1e:	a1 a4 04 05 08       	mov    0x80504a4,%eax
 8049b23:	89 45 e8             	mov    %eax,-0x18(%ebp)
 8049b26:	83 7d e8 02          	cmpl   $0x2,-0x18(%ebp)
 8049b2a:	74 2c                	je     8049b58 <initreport(_IO_FILE*)+0x142>
 8049b2c:	83 7d e8 03          	cmpl   $0x3,-0x18(%ebp)
 8049b30:	74 4b                	je     8049b7d <initreport(_IO_FILE*)+0x167>
 8049b32:	83 7d e8 01          	cmpl   $0x1,-0x18(%ebp)
 8049b36:	74 02                	je     8049b3a <initreport(_IO_FILE*)+0x124>
 8049b38:	eb 66                	jmp    8049ba0 <initreport(_IO_FILE*)+0x18a>
 8049b3a:	a1 c4 04 05 08       	mov    0x80504c4,%eax
 8049b3f:	89 44 24 08          	mov    %eax,0x8(%esp)
 8049b43:	c7 44 24 04 f0 e9 04 	movl   $0x804e9f0,0x4(%esp)
 8049b4a:	08 
 8049b4b:	8b 45 08             	mov    0x8(%ebp),%eax
 8049b4e:	89 04 24             	mov    %eax,(%esp)
 8049b51:	e8 6a f2 ff ff       	call   8048dc0 <fprintf@plt>
 8049b56:	eb 48                	jmp    8049ba0 <initreport(_IO_FILE*)+0x18a>
 8049b58:	8b 45 08             	mov    0x8(%ebp),%eax
 8049b5b:	89 44 24 0c          	mov    %eax,0xc(%esp)
 8049b5f:	c7 44 24 08 1f 00 00 	movl   $0x1f,0x8(%esp)
 8049b66:	00 
 8049b67:	c7 44 24 04 01 00 00 	movl   $0x1,0x4(%esp)
 8049b6e:	00 
 8049b6f:	c7 04 24 18 ea 04 08 	movl   $0x804ea18,(%esp)
 8049b76:	e8 25 f2 ff ff       	call   8048da0 <fwrite@plt>
 8049b7b:	eb 23                	jmp    8049ba0 <initreport(_IO_FILE*)+0x18a>
 8049b7d:	8b 45 08             	mov    0x8(%ebp),%eax
 8049b80:	89 44 24 0c          	mov    %eax,0xc(%esp)
 8049b84:	c7 44 24 08 28 00 00 	movl   $0x28,0x8(%esp)
 8049b8b:	00 
 8049b8c:	c7 44 24 04 01 00 00 	movl   $0x1,0x4(%esp)
 8049b93:	00 
 8049b94:	c7 04 24 38 ea 04 08 	movl   $0x804ea38,(%esp)
 8049b9b:	e8 00 f2 ff ff       	call   8048da0 <fwrite@plt>
 8049ba0:	a1 a0 04 05 08       	mov    0x80504a0,%eax
 8049ba5:	89 45 ec             	mov    %eax,-0x14(%ebp)
 8049ba8:	83 7d ec 02          	cmpl   $0x2,-0x14(%ebp)
 8049bac:	74 33                	je     8049be1 <initreport(_IO_FILE*)+0x1cb>
 8049bae:	83 7d ec 03          	cmpl   $0x3,-0x14(%ebp)
 8049bb2:	74 42                	je     8049bf6 <initreport(_IO_FILE*)+0x1e0>
 8049bb4:	83 7d ec 01          	cmpl   $0x1,-0x14(%ebp)
 8049bb8:	74 02                	je     8049bbc <initreport(_IO_FILE*)+0x1a6>
 8049bba:	eb 5f                	jmp    8049c1b <initreport(_IO_FILE*)+0x205>
 8049bbc:	8b 45 08             	mov    0x8(%ebp),%eax
 8049bbf:	89 44 24 0c          	mov    %eax,0xc(%esp)
 8049bc3:	c7 44 24 08 2c 00 00 	movl   $0x2c,0x8(%esp)
 8049bca:	00 
 8049bcb:	c7 44 24 04 01 00 00 	movl   $0x1,0x4(%esp)
 8049bd2:	00 
 8049bd3:	c7 04 24 64 ea 04 08 	movl   $0x804ea64,(%esp)
 8049bda:	e8 c1 f1 ff ff       	call   8048da0 <fwrite@plt>
 8049bdf:	eb 5d                	jmp    8049c3e <initreport(_IO_FILE*)+0x228>
 8049be1:	c7 44 24 04 94 ea 04 	movl   $0x804ea94,0x4(%esp)
 8049be8:	08 
 8049be9:	8b 45 08             	mov    0x8(%ebp),%eax
 8049bec:	89 04 24             	mov    %eax,(%esp)
 8049bef:	e8 cc f1 ff ff       	call   8048dc0 <fprintf@plt>
 8049bf4:	eb 48                	jmp    8049c3e <initreport(_IO_FILE*)+0x228>
 8049bf6:	8b 45 08             	mov    0x8(%ebp),%eax
 8049bf9:	89 44 24 0c          	mov    %eax,0xc(%esp)
 8049bfd:	c7 44 24 08 29 00 00 	movl   $0x29,0x8(%esp)
 8049c04:	00 
 8049c05:	c7 44 24 04 01 00 00 	movl   $0x1,0x4(%esp)
 8049c0c:	00 
 8049c0d:	c7 04 24 cc ea 04 08 	movl   $0x804eacc,(%esp)
 8049c14:	e8 87 f1 ff ff       	call   8048da0 <fwrite@plt>
 8049c19:	eb 23                	jmp    8049c3e <initreport(_IO_FILE*)+0x228>
 8049c1b:	8b 45 08             	mov    0x8(%ebp),%eax
 8049c1e:	89 44 24 0c          	mov    %eax,0xc(%esp)
 8049c22:	c7 44 24 08 1e 00 00 	movl   $0x1e,0x8(%esp)
 8049c29:	00 
 8049c2a:	c7 44 24 04 01 00 00 	movl   $0x1,0x4(%esp)
 8049c31:	00 
 8049c32:	c7 04 24 f8 ea 04 08 	movl   $0x804eaf8,(%esp)
 8049c39:	e8 62 f1 ff ff       	call   8048da0 <fwrite@plt>
 8049c3e:	a1 b8 04 05 08       	mov    0x80504b8,%eax
 8049c43:	85 c0                	test   %eax,%eax
 8049c45:	74 25                	je     8049c6c <initreport(_IO_FILE*)+0x256>
 8049c47:	8b 45 08             	mov    0x8(%ebp),%eax
 8049c4a:	89 44 24 0c          	mov    %eax,0xc(%esp)
 8049c4e:	c7 44 24 08 26 00 00 	movl   $0x26,0x8(%esp)
 8049c55:	00 
 8049c56:	c7 44 24 04 01 00 00 	movl   $0x1,0x4(%esp)
 8049c5d:	00 
 8049c5e:	c7 04 24 18 eb 04 08 	movl   $0x804eb18,(%esp)
 8049c65:	e8 36 f1 ff ff       	call   8048da0 <fwrite@plt>
 8049c6a:	eb 23                	jmp    8049c8f <initreport(_IO_FILE*)+0x279>
 8049c6c:	8b 45 08             	mov    0x8(%ebp),%eax
 8049c6f:	89 44 24 0c          	mov    %eax,0xc(%esp)
 8049c73:	c7 44 24 08 28 00 00 	movl   $0x28,0x8(%esp)
 8049c7a:	00 
 8049c7b:	c7 44 24 04 01 00 00 	movl   $0x1,0x4(%esp)
 8049c82:	00 
 8049c83:	c7 04 24 40 eb 04 08 	movl   $0x804eb40,(%esp)
 8049c8a:	e8 11 f1 ff ff       	call   8048da0 <fwrite@plt>
 8049c8f:	8b 45 08             	mov    0x8(%ebp),%eax
 8049c92:	89 44 24 0c          	mov    %eax,0xc(%esp)
 8049c96:	c7 44 24 08 18 00 00 	movl   $0x18,0x8(%esp)
 8049c9d:	00 
 8049c9e:	c7 44 24 04 01 00 00 	movl   $0x1,0x4(%esp)
 8049ca5:	00 
 8049ca6:	c7 04 24 69 eb 04 08 	movl   $0x804eb69,(%esp)
 8049cad:	e8 ee f0 ff ff       	call   8048da0 <fwrite@plt>
 8049cb2:	a1 b4 04 05 08       	mov    0x80504b4,%eax
 8049cb7:	85 c0                	test   %eax,%eax
 8049cb9:	74 25                	je     8049ce0 <initreport(_IO_FILE*)+0x2ca>
 8049cbb:	8b 45 08             	mov    0x8(%ebp),%eax
 8049cbe:	89 44 24 0c          	mov    %eax,0xc(%esp)
 8049cc2:	c7 44 24 08 06 00 00 	movl   $0x6,0x8(%esp)
 8049cc9:	00 
 8049cca:	c7 44 24 04 01 00 00 	movl   $0x1,0x4(%esp)
 8049cd1:	00 
 8049cd2:	c7 04 24 82 eb 04 08 	movl   $0x804eb82,(%esp)
 8049cd9:	e8 c2 f0 ff ff       	call   8048da0 <fwrite@plt>
 8049cde:	eb 23                	jmp    8049d03 <initreport(_IO_FILE*)+0x2ed>
 8049ce0:	8b 45 08             	mov    0x8(%ebp),%eax
 8049ce3:	89 44 24 0c          	mov    %eax,0xc(%esp)
 8049ce7:	c7 44 24 08 09 00 00 	movl   $0x9,0x8(%esp)
 8049cee:	00 
 8049cef:	c7 44 24 04 01 00 00 	movl   $0x1,0x4(%esp)
 8049cf6:	00 
 8049cf7:	c7 04 24 89 eb 04 08 	movl   $0x804eb89,(%esp)
 8049cfe:	e8 9d f0 ff ff       	call   8048da0 <fwrite@plt>
 8049d03:	a1 80 04 05 08       	mov    0x8050480,%eax
 8049d08:	89 44 24 08          	mov    %eax,0x8(%esp)
 8049d0c:	c7 44 24 04 94 eb 04 	movl   $0x804eb94,0x4(%esp)
 8049d13:	08 
 8049d14:	8b 45 08             	mov    0x8(%ebp),%eax
 8049d17:	89 04 24             	mov    %eax,(%esp)
 8049d1a:	e8 a1 f0 ff ff       	call   8048dc0 <fprintf@plt>
 8049d1f:	a1 84 04 05 08       	mov    0x8050484,%eax
 8049d24:	89 44 24 08          	mov    %eax,0x8(%esp)
 8049d28:	c7 44 24 04 b8 eb 04 	movl   $0x804ebb8,0x4(%esp)
 8049d2f:	08 
 8049d30:	8b 45 08             	mov    0x8(%ebp),%eax
 8049d33:	89 04 24             	mov    %eax,(%esp)
 8049d36:	e8 85 f0 ff ff       	call   8048dc0 <fprintf@plt>
 8049d3b:	d9 05 e0 04 05 08    	flds   0x80504e0
 8049d41:	dd 5c 24 08          	fstpl  0x8(%esp)
 8049d45:	c7 44 24 04 dc eb 04 	movl   $0x804ebdc,0x4(%esp)
 8049d4c:	08 
 8049d4d:	8b 45 08             	mov    0x8(%ebp),%eax
 8049d50:	89 04 24             	mov    %eax,(%esp)
 8049d53:	e8 68 f0 ff ff       	call   8048dc0 <fprintf@plt>
 8049d58:	d9 05 e4 04 05 08    	flds   0x80504e4
 8049d5e:	dd 5c 24 08          	fstpl  0x8(%esp)
 8049d62:	c7 44 24 04 04 ec 04 	movl   $0x804ec04,0x4(%esp)
 8049d69:	08 
 8049d6a:	8b 45 08             	mov    0x8(%ebp),%eax
 8049d6d:	89 04 24             	mov    %eax,(%esp)
 8049d70:	e8 4b f0 ff ff       	call   8048dc0 <fprintf@plt>
 8049d75:	a1 ac 04 05 08       	mov    0x80504ac,%eax
 8049d7a:	85 c0                	test   %eax,%eax
 8049d7c:	74 40                	je     8049dbe <initreport(_IO_FILE*)+0x3a8>
 8049d7e:	8b 45 08             	mov    0x8(%ebp),%eax
 8049d81:	89 44 24 0c          	mov    %eax,0xc(%esp)
 8049d85:	c7 44 24 08 16 00 00 	movl   $0x16,0x8(%esp)
 8049d8c:	00 
 8049d8d:	c7 44 24 04 01 00 00 	movl   $0x1,0x4(%esp)
 8049d94:	00 
 8049d95:	c7 04 24 29 ec 04 08 	movl   $0x804ec29,(%esp)
 8049d9c:	e8 ff ef ff ff       	call   8048da0 <fwrite@plt>
 8049da1:	d9 05 f8 06 05 08    	flds   0x80506f8
 8049da7:	dd 5c 24 08          	fstpl  0x8(%esp)
 8049dab:	c7 44 24 04 40 ec 04 	movl   $0x804ec40,0x4(%esp)
 8049db2:	08 
 8049db3:	8b 45 08             	mov    0x8(%ebp),%eax
 8049db6:	89 04 24             	mov    %eax,(%esp)
 8049db9:	e8 02 f0 ff ff       	call   8048dc0 <fprintf@plt>
 8049dbe:	a1 b8 04 05 08       	mov    0x80504b8,%eax
 8049dc3:	85 c0                	test   %eax,%eax
 8049dc5:	74 1c                	je     8049de3 <initreport(_IO_FILE*)+0x3cd>
 8049dc7:	a1 94 04 05 08       	mov    0x8050494,%eax
 8049dcc:	89 44 24 08          	mov    %eax,0x8(%esp)
 8049dd0:	c7 44 24 04 68 ec 04 	movl   $0x804ec68,0x4(%esp)
 8049dd7:	08 
 8049dd8:	8b 45 08             	mov    0x8(%ebp),%eax
 8049ddb:	89 04 24             	mov    %eax,(%esp)
 8049dde:	e8 dd ef ff ff       	call   8048dc0 <fprintf@plt>
 8049de3:	a1 8c 04 05 08       	mov    0x805048c,%eax
 8049de8:	89 44 24 08          	mov    %eax,0x8(%esp)
 8049dec:	c7 44 24 04 8c ec 04 	movl   $0x804ec8c,0x4(%esp)
 8049df3:	08 
 8049df4:	8b 45 08             	mov    0x8(%ebp),%eax
 8049df7:	89 04 24             	mov    %eax,(%esp)
 8049dfa:	e8 c1 ef ff ff       	call   8048dc0 <fprintf@plt>
 8049dff:	a1 a8 04 05 08       	mov    0x80504a8,%eax
 8049e04:	89 44 24 08          	mov    %eax,0x8(%esp)
 8049e08:	c7 44 24 04 b0 ec 04 	movl   $0x804ecb0,0x4(%esp)
 8049e0f:	08 
 8049e10:	8b 45 08             	mov    0x8(%ebp),%eax
 8049e13:	89 04 24             	mov    %eax,(%esp)
 8049e16:	e8 a5 ef ff ff       	call   8048dc0 <fprintf@plt>
 8049e1b:	a1 bc 04 05 08       	mov    0x80504bc,%eax
 8049e20:	85 c0                	test   %eax,%eax
 8049e22:	74 44                	je     8049e68 <initreport(_IO_FILE*)+0x452>
 8049e24:	a1 9c 04 05 08       	mov    0x805049c,%eax
 8049e29:	83 f8 01             	cmp    $0x1,%eax
 8049e2c:	75 3a                	jne    8049e68 <initreport(_IO_FILE*)+0x452>
 8049e2e:	d9 05 d8 04 05 08    	flds   0x80504d8
 8049e34:	dd 5c 24 08          	fstpl  0x8(%esp)
 8049e38:	c7 44 24 04 d4 ec 04 	movl   $0x804ecd4,0x4(%esp)
 8049e3f:	08 
 8049e40:	8b 45 08             	mov    0x8(%ebp),%eax
 8049e43:	89 04 24             	mov    %eax,(%esp)
 8049e46:	e8 75 ef ff ff       	call   8048dc0 <fprintf@plt>
 8049e4b:	d9 05 dc 04 05 08    	flds   0x80504dc
 8049e51:	dd 5c 24 08          	fstpl  0x8(%esp)
 8049e55:	c7 44 24 04 fc ec 04 	movl   $0x804ecfc,0x4(%esp)
 8049e5c:	08 
 8049e5d:	8b 45 08             	mov    0x8(%ebp),%eax
 8049e60:	89 04 24             	mov    %eax,(%esp)
 8049e63:	e8 58 ef ff ff       	call   8048dc0 <fprintf@plt>
 8049e68:	a1 a4 04 05 08       	mov    0x80504a4,%eax
 8049e6d:	83 f8 01             	cmp    $0x1,%eax
 8049e70:	75 23                	jne    8049e95 <initreport(_IO_FILE*)+0x47f>
 8049e72:	8b 45 08             	mov    0x8(%ebp),%eax
 8049e75:	89 44 24 0c          	mov    %eax,0xc(%esp)
 8049e79:	c7 44 24 08 1e 00 00 	movl   $0x1e,0x8(%esp)
 8049e80:	00 
 8049e81:	c7 44 24 04 01 00 00 	movl   $0x1,0x4(%esp)
 8049e88:	00 
 8049e89:	c7 04 24 24 ed 04 08 	movl   $0x804ed24,(%esp)
 8049e90:	e8 0b ef ff ff       	call   8048da0 <fwrite@plt>
 8049e95:	c7 45 fc 00 00 00 00 	movl   $0x0,-0x4(%ebp)
 8049e9c:	eb 3f                	jmp    8049edd <initreport(_IO_FILE*)+0x4c7>
 8049e9e:	8b 45 fc             	mov    -0x4(%ebp),%eax
 8049ea1:	d9 04 85 80 06 05 08 	flds   0x8050680(,%eax,4)
 8049ea8:	8b 55 fc             	mov    -0x4(%ebp),%edx
 8049eab:	83 c2 01             	add    $0x1,%edx
 8049eae:	8b 45 fc             	mov    -0x4(%ebp),%eax
 8049eb1:	d9 04 85 00 06 05 08 	flds   0x8050600(,%eax,4)
 8049eb8:	d9 c9                	fxch   %st(1)
 8049eba:	dd 5c 24 14          	fstpl  0x14(%esp)
 8049ebe:	89 54 24 10          	mov    %edx,0x10(%esp)
 8049ec2:	dd 5c 24 08          	fstpl  0x8(%esp)
 8049ec6:	c7 44 24 04 44 ed 04 	movl   $0x804ed44,0x4(%esp)
 8049ecd:	08 
 8049ece:	8b 45 08             	mov    0x8(%ebp),%eax
 8049ed1:	89 04 24             	mov    %eax,(%esp)
 8049ed4:	e8 e7 ee ff ff       	call   8048dc0 <fprintf@plt>
 8049ed9:	83 45 fc 01          	addl   $0x1,-0x4(%ebp)
 8049edd:	a1 8c 04 05 08       	mov    0x805048c,%eax
 8049ee2:	83 e8 01             	sub    $0x1,%eax
 8049ee5:	3b 45 fc             	cmp    -0x4(%ebp),%eax
 8049ee8:	7d b4                	jge    8049e9e <initreport(_IO_FILE*)+0x488>
 8049eea:	8b 45 08             	mov    0x8(%ebp),%eax
 8049eed:	89 44 24 0c          	mov    %eax,0xc(%esp)
 8049ef1:	c7 44 24 08 33 00 00 	movl   $0x33,0x8(%esp)
 8049ef8:	00 
 8049ef9:	c7 44 24 04 01 00 00 	movl   $0x1,0x4(%esp)
 8049f00:	00 
 8049f01:	c7 04 24 64 ed 04 08 	movl   $0x804ed64,(%esp)
 8049f08:	e8 93 ee ff ff       	call   8048da0 <fwrite@plt>
 8049f0d:	c9                   	leave  
 8049f0e:	c3                   	ret    
 8049f0f:	90                   	nop    

08049f10 <writechrom1(unsigned int*, float*)>:
 8049f10:	55                   	push   %ebp
 8049f11:	89 e5                	mov    %esp,%ebp
 8049f13:	53                   	push   %ebx
 8049f14:	83 ec 54             	sub    $0x54,%esp
 8049f17:	c7 45 d0 00 00 00 00 	movl   $0x0,-0x30(%ebp)
 8049f1e:	c7 45 cc 01 00 00 00 	movl   $0x1,-0x34(%ebp)
 8049f25:	a1 b8 04 05 08       	mov    0x80504b8,%eax
 8049f2a:	85 c0                	test   %eax,%eax
 8049f2c:	0f 84 42 01 00 00    	je     804a074 <writechrom1(unsigned int*, float*)+0x164>
 8049f32:	83 7d 08 00          	cmpl   $0x0,0x8(%ebp)
 8049f36:	75 0c                	jne    8049f44 <writechrom1(unsigned int*, float*)+0x34>
 8049f38:	c7 04 24 98 ed 04 08 	movl   $0x804ed98,(%esp)
 8049f3f:	e8 88 f6 ff ff       	call   80495cc <error_ptr_null(char const*)>
 8049f44:	8b 45 08             	mov    0x8(%ebp),%eax
 8049f47:	8b 00                	mov    (%eax),%eax
 8049f49:	83 e0 07             	and    $0x7,%eax
 8049f4c:	83 c0 01             	add    $0x1,%eax
 8049f4f:	89 45 c4             	mov    %eax,-0x3c(%ebp)
 8049f52:	c7 45 e8 00 00 00 00 	movl   $0x0,-0x18(%ebp)
 8049f59:	e9 0a 01 00 00       	jmp    804a068 <writechrom1(unsigned int*, float*)+0x158>
 8049f5e:	8b 5d e8             	mov    -0x18(%ebp),%ebx
 8049f61:	83 c3 01             	add    $0x1,%ebx
 8049f64:	c7 44 24 04 ac ed 04 	movl   $0x804edac,0x4(%esp)
 8049f6b:	08 
 8049f6c:	c7 04 24 e0 03 05 08 	movl   $0x80503e0,(%esp)
 8049f73:	e8 58 ed ff ff       	call   8048cd0 <std::basic_ostream<char, std::char_traits<char> >& std::operator<< <std::char_traits<char> >(std::basic_ostream<char, std::char_traits<char> >&, char const*)@plt>
 8049f78:	89 5c 24 04          	mov    %ebx,0x4(%esp)
 8049f7c:	89 04 24             	mov    %eax,(%esp)
 8049f7f:	e8 5c ec ff ff       	call   8048be0 <std::ostream::operator<<(int)@plt>
 8049f84:	c7 44 24 04 0a 00 00 	movl   $0xa,0x4(%esp)
 8049f8b:	00 
 8049f8c:	89 04 24             	mov    %eax,(%esp)
 8049f8f:	e8 1c ed ff ff       	call   8048cb0 <std::basic_ostream<char, std::char_traits<char> >& std::operator<< <std::char_traits<char> >(std::basic_ostream<char, std::char_traits<char> >&, char)@plt>
 8049f94:	c7 45 f8 00 00 00 00 	movl   $0x0,-0x8(%ebp)
 8049f9b:	e9 8b 00 00 00       	jmp    804a02b <writechrom1(unsigned int*, float*)+0x11b>
 8049fa0:	8b 55 e8             	mov    -0x18(%ebp),%edx
 8049fa3:	89 d0                	mov    %edx,%eax
 8049fa5:	01 c0                	add    %eax,%eax
 8049fa7:	01 d0                	add    %edx,%eax
 8049fa9:	c1 e0 02             	shl    $0x2,%eax
 8049fac:	03 45 f8             	add    -0x8(%ebp),%eax
 8049faf:	01 c0                	add    %eax,%eax
 8049fb1:	83 c0 04             	add    $0x4,%eax
 8049fb4:	89 45 f4             	mov    %eax,-0xc(%ebp)
 8049fb7:	8b 45 f4             	mov    -0xc(%ebp),%eax
 8049fba:	c1 e8 05             	shr    $0x5,%eax
 8049fbd:	89 45 ec             	mov    %eax,-0x14(%ebp)
 8049fc0:	8b 55 f4             	mov    -0xc(%ebp),%edx
 8049fc3:	8b 45 ec             	mov    -0x14(%ebp),%eax
 8049fc6:	c1 e0 05             	shl    $0x5,%eax
 8049fc9:	89 d1                	mov    %edx,%ecx
 8049fcb:	29 c1                	sub    %eax,%ecx
 8049fcd:	89 c8                	mov    %ecx,%eax
 8049fcf:	89 45 f0             	mov    %eax,-0x10(%ebp)
 8049fd2:	8b 45 ec             	mov    -0x14(%ebp),%eax
 8049fd5:	c1 e0 02             	shl    $0x2,%eax
 8049fd8:	03 45 08             	add    0x8(%ebp),%eax
 8049fdb:	8b 00                	mov    (%eax),%eax
 8049fdd:	8b 4d f0             	mov    -0x10(%ebp),%ecx
 8049fe0:	83 c1 01             	add    $0x1,%ecx
 8049fe3:	d3 e8                	shr    %cl,%eax
 8049fe5:	23 45 cc             	and    -0x34(%ebp),%eax
 8049fe8:	8d 14 00             	lea    (%eax,%eax,1),%edx
 8049feb:	8b 45 ec             	mov    -0x14(%ebp),%eax
 8049fee:	c1 e0 02             	shl    $0x2,%eax
 8049ff1:	03 45 08             	add    0x8(%ebp),%eax
 8049ff4:	8b 00                	mov    (%eax),%eax
 8049ff6:	8b 4d f0             	mov    -0x10(%ebp),%ecx
 8049ff9:	d3 e8                	shr    %cl,%eax
 8049ffb:	23 45 cc             	and    -0x34(%ebp),%eax
 8049ffe:	8d 04 02             	lea    (%edx,%eax,1),%eax
 804a001:	89 45 e4             	mov    %eax,-0x1c(%ebp)
 804a004:	8b 45 e4             	mov    -0x1c(%ebp),%eax
 804a007:	89 44 24 04          	mov    %eax,0x4(%esp)
 804a00b:	c7 04 24 e0 03 05 08 	movl   $0x80503e0,(%esp)
 804a012:	e8 c9 eb ff ff       	call   8048be0 <std::ostream::operator<<(int)@plt>
 804a017:	c7 44 24 04 b7 ed 04 	movl   $0x804edb7,0x4(%esp)
 804a01e:	08 
 804a01f:	89 04 24             	mov    %eax,(%esp)
 804a022:	e8 a9 ec ff ff       	call   8048cd0 <std::basic_ostream<char, std::char_traits<char> >& std::operator<< <std::char_traits<char> >(std::basic_ostream<char, std::char_traits<char> >&, char const*)@plt>
 804a027:	83 45 f8 01          	addl   $0x1,-0x8(%ebp)
 804a02b:	83 7d f8 0b          	cmpl   $0xb,-0x8(%ebp)
 804a02f:	0f 8e 6b ff ff ff    	jle    8049fa0 <writechrom1(unsigned int*, float*)+0x90>
 804a035:	8b 45 e8             	mov    -0x18(%ebp),%eax
 804a038:	c1 e0 02             	shl    $0x2,%eax
 804a03b:	03 45 0c             	add    0xc(%ebp),%eax
 804a03e:	8b 00                	mov    (%eax),%eax
 804a040:	89 44 24 04          	mov    %eax,0x4(%esp)
 804a044:	c7 04 24 e0 03 05 08 	movl   $0x80503e0,(%esp)
 804a04b:	e8 e0 ed ff ff       	call   8048e30 <std::ostream::operator<<(float)@plt>
 804a050:	c7 44 24 04 b9 ed 04 	movl   $0x804edb9,0x4(%esp)
 804a057:	08 
 804a058:	c7 04 24 e0 03 05 08 	movl   $0x80503e0,(%esp)
 804a05f:	e8 6c ec ff ff       	call   8048cd0 <std::basic_ostream<char, std::char_traits<char> >& std::operator<< <std::char_traits<char> >(std::basic_ostream<char, std::char_traits<char> >&, char const*)@plt>
 804a064:	83 45 e8 01          	addl   $0x1,-0x18(%ebp)
 804a068:	8b 45 e8             	mov    -0x18(%ebp),%eax
 804a06b:	3b 45 c4             	cmp    -0x3c(%ebp),%eax
 804a06e:	0f 8c ea fe ff ff    	jl     8049f5e <writechrom1(unsigned int*, float*)+0x4e>
 804a074:	83 c4 54             	add    $0x54,%esp
 804a077:	5b                   	pop    %ebx
 804a078:	5d                   	pop    %ebp
 804a079:	c3                   	ret    

0804a07a <writechrom(unsigned int*)>:
 804a07a:	55                   	push   %ebp
 804a07b:	89 e5                	mov    %esp,%ebp
 804a07d:	83 ec 38             	sub    $0x38,%esp
 804a080:	c7 45 ec 00 00 00 00 	movl   $0x0,-0x14(%ebp)
 804a087:	c7 45 e8 03 00 00 00 	movl   $0x3,-0x18(%ebp)
 804a08e:	a1 b8 04 05 08       	mov    0x80504b8,%eax
 804a093:	85 c0                	test   %eax,%eax
 804a095:	0f 84 1d 01 00 00    	je     804a1b8 <writechrom(unsigned int*)+0x13e>
 804a09b:	83 7d 08 00          	cmpl   $0x0,0x8(%ebp)
 804a09f:	75 0c                	jne    804a0ad <writechrom(unsigned int*)+0x33>
 804a0a1:	c7 04 24 98 ed 04 08 	movl   $0x804ed98,(%esp)
 804a0a8:	e8 1f f5 ff ff       	call   80495cc <error_ptr_null(char const*)>
 804a0ad:	c7 45 f8 00 00 00 00 	movl   $0x0,-0x8(%ebp)
 804a0b4:	e9 e5 00 00 00       	jmp    804a19e <writechrom(unsigned int*)+0x124>
 804a0b9:	8b 45 f8             	mov    -0x8(%ebp),%eax
 804a0bc:	c1 e0 02             	shl    $0x2,%eax
 804a0bf:	03 45 08             	add    0x8(%ebp),%eax
 804a0c2:	8b 00                	mov    (%eax),%eax
 804a0c4:	89 45 e4             	mov    %eax,-0x1c(%ebp)
 804a0c7:	a1 98 04 05 08       	mov    0x8050498,%eax
 804a0cc:	83 e8 01             	sub    $0x1,%eax
 804a0cf:	3b 45 f8             	cmp    -0x8(%ebp),%eax
 804a0d2:	75 18                	jne    804a0ec <writechrom(unsigned int*)+0x72>
 804a0d4:	a1 94 04 05 08       	mov    0x8050494,%eax
 804a0d9:	89 c2                	mov    %eax,%edx
 804a0db:	8b 45 f8             	mov    -0x8(%ebp),%eax
 804a0de:	c1 e0 05             	shl    $0x5,%eax
 804a0e1:	89 d1                	mov    %edx,%ecx
 804a0e3:	29 c1                	sub    %eax,%ecx
 804a0e5:	89 c8                	mov    %ecx,%eax
 804a0e7:	89 45 f4             	mov    %eax,-0xc(%ebp)
 804a0ea:	eb 07                	jmp    804a0f3 <writechrom(unsigned int*)+0x79>
 804a0ec:	c7 45 f4 20 00 00 00 	movl   $0x20,-0xc(%ebp)
 804a0f3:	c7 45 fc 00 00 00 00 	movl   $0x0,-0x4(%ebp)
 804a0fa:	e9 8f 00 00 00       	jmp    804a18e <writechrom(unsigned int*)+0x114>
 804a0ff:	8b 45 e8             	mov    -0x18(%ebp),%eax
 804a102:	23 45 e4             	and    -0x1c(%ebp),%eax
 804a105:	89 45 e0             	mov    %eax,-0x20(%ebp)
 804a108:	8b 45 e0             	mov    -0x20(%ebp),%eax
 804a10b:	89 45 dc             	mov    %eax,-0x24(%ebp)
 804a10e:	83 7d dc 01          	cmpl   $0x1,-0x24(%ebp)
 804a112:	74 48                	je     804a15c <writechrom(unsigned int*)+0xe2>
 804a114:	83 7d dc 01          	cmpl   $0x1,-0x24(%ebp)
 804a118:	7f 08                	jg     804a122 <writechrom(unsigned int*)+0xa8>
 804a11a:	83 7d dc 00          	cmpl   $0x0,-0x24(%ebp)
 804a11e:	74 52                	je     804a172 <writechrom(unsigned int*)+0xf8>
 804a120:	eb 64                	jmp    804a186 <writechrom(unsigned int*)+0x10c>
 804a122:	83 7d dc 02          	cmpl   $0x2,-0x24(%ebp)
 804a126:	74 1e                	je     804a146 <writechrom(unsigned int*)+0xcc>
 804a128:	83 7d dc 03          	cmpl   $0x3,-0x24(%ebp)
 804a12c:	74 02                	je     804a130 <writechrom(unsigned int*)+0xb6>
 804a12e:	eb 56                	jmp    804a186 <writechrom(unsigned int*)+0x10c>
 804a130:	c7 44 24 04 bc ed 04 	movl   $0x804edbc,0x4(%esp)
 804a137:	08 
 804a138:	c7 04 24 e0 03 05 08 	movl   $0x80503e0,(%esp)
 804a13f:	e8 8c eb ff ff       	call   8048cd0 <std::basic_ostream<char, std::char_traits<char> >& std::operator<< <std::char_traits<char> >(std::basic_ostream<char, std::char_traits<char> >&, char const*)@plt>
 804a144:	eb 40                	jmp    804a186 <writechrom(unsigned int*)+0x10c>
 804a146:	c7 44 24 04 bf ed 04 	movl   $0x804edbf,0x4(%esp)
 804a14d:	08 
 804a14e:	c7 04 24 e0 03 05 08 	movl   $0x80503e0,(%esp)
 804a155:	e8 76 eb ff ff       	call   8048cd0 <std::basic_ostream<char, std::char_traits<char> >& std::operator<< <std::char_traits<char> >(std::basic_ostream<char, std::char_traits<char> >&, char const*)@plt>
 804a15a:	eb 2a                	jmp    804a186 <writechrom(unsigned int*)+0x10c>
 804a15c:	c7 44 24 04 c2 ed 04 	movl   $0x804edc2,0x4(%esp)
 804a163:	08 
 804a164:	c7 04 24 e0 03 05 08 	movl   $0x80503e0,(%esp)
 804a16b:	e8 60 eb ff ff       	call   8048cd0 <std::basic_ostream<char, std::char_traits<char> >& std::operator<< <std::char_traits<char> >(std::basic_ostream<char, std::char_traits<char> >&, char const*)@plt>
 804a170:	eb 14                	jmp    804a186 <writechrom(unsigned int*)+0x10c>
 804a172:	c7 44 24 04 c5 ed 04 	movl   $0x804edc5,0x4(%esp)
 804a179:	08 
 804a17a:	c7 04 24 e0 03 05 08 	movl   $0x80503e0,(%esp)
 804a181:	e8 4a eb ff ff       	call   8048cd0 <std::basic_ostream<char, std::char_traits<char> >& std::operator<< <std::char_traits<char> >(std::basic_ostream<char, std::char_traits<char> >&, char const*)@plt>
 804a186:	c1 6d e4 02          	shrl   $0x2,-0x1c(%ebp)
 804a18a:	83 45 fc 02          	addl   $0x2,-0x4(%ebp)
 804a18e:	8b 45 fc             	mov    -0x4(%ebp),%eax
 804a191:	3b 45 f4             	cmp    -0xc(%ebp),%eax
 804a194:	0f 8c 65 ff ff ff    	jl     804a0ff <writechrom(unsigned int*)+0x85>
 804a19a:	83 45 f8 01          	addl   $0x1,-0x8(%ebp)
 804a19e:	a1 98 04 05 08       	mov    0x8050498,%eax
 804a1a3:	39 45 f8             	cmp    %eax,-0x8(%ebp)
 804a1a6:	0f 8c 0d ff ff ff    	jl     804a0b9 <writechrom(unsigned int*)+0x3f>
 804a1ac:	c7 04 24 0a 00 00 00 	movl   $0xa,(%esp)
 804a1b3:	e8 b8 ea ff ff       	call   8048c70 <putchar@plt>
 804a1b8:	c9                   	leave  
 804a1b9:	c3                   	ret    

0804a1ba <initpool()>:
 804a1ba:	55                   	push   %ebp
 804a1bb:	89 e5                	mov    %esp,%ebp
 804a1bd:	53                   	push   %ebx
 804a1be:	83 ec 54             	sub    $0x54,%esp
 804a1c1:	c7 45 dc 01 00 00 00 	movl   $0x1,-0x24(%ebp)
 804a1c8:	a1 94 04 05 08       	mov    0x8050494,%eax
 804a1cd:	c1 e8 05             	shr    $0x5,%eax
 804a1d0:	a3 98 04 05 08       	mov    %eax,0x8050498
 804a1d5:	a1 94 04 05 08       	mov    0x8050494,%eax
 804a1da:	83 e0 1f             	and    $0x1f,%eax
 804a1dd:	85 c0                	test   %eax,%eax
 804a1df:	74 0d                	je     804a1ee <initpool()+0x34>
 804a1e1:	a1 98 04 05 08       	mov    0x8050498,%eax
 804a1e6:	83 c0 01             	add    $0x1,%eax
 804a1e9:	a3 98 04 05 08       	mov    %eax,0x8050498
 804a1ee:	a1 98 04 05 08       	mov    0x8050498,%eax
 804a1f3:	c1 e0 02             	shl    $0x2,%eax
 804a1f6:	89 45 d8             	mov    %eax,-0x28(%ebp)
 804a1f9:	c7 45 e8 00 00 00 00 	movl   $0x0,-0x18(%ebp)
 804a200:	eb 43                	jmp    804a245 <initpool()+0x8b>
 804a202:	8b 45 e8             	mov    -0x18(%ebp),%eax
 804a205:	69 c0 94 00 00 00    	imul   $0x94,%eax,%eax
 804a20b:	89 c2                	mov    %eax,%edx
 804a20d:	a1 04 07 05 08       	mov    0x8050704,%eax
 804a212:	8d 1c 02             	lea    (%edx,%eax,1),%ebx
 804a215:	8b 45 d8             	mov    -0x28(%ebp),%eax
 804a218:	89 04 24             	mov    %eax,(%esp)
 804a21b:	e8 c0 eb ff ff       	call   8048de0 <malloc@plt>
 804a220:	89 83 80 00 00 00    	mov    %eax,0x80(%ebx)
 804a226:	8b 83 80 00 00 00    	mov    0x80(%ebx),%eax
 804a22c:	85 c0                	test   %eax,%eax
 804a22e:	0f 94 c0             	sete   %al
 804a231:	84 c0                	test   %al,%al
 804a233:	74 0c                	je     804a241 <initpool()+0x87>
 804a235:	c7 04 24 c8 ed 04 08 	movl   $0x804edc8,(%esp)
 804a23c:	e8 a3 f7 ff ff       	call   80499e4 <nomemory(char const*)>
 804a241:	83 45 e8 01          	addl   $0x1,-0x18(%ebp)
 804a245:	a1 b4 07 05 08       	mov    0x80507b4,%eax
 804a24a:	39 45 e8             	cmp    %eax,-0x18(%ebp)
 804a24d:	7c b3                	jl     804a202 <initpool()+0x48>
 804a24f:	8b 45 d8             	mov    -0x28(%ebp),%eax
 804a252:	89 04 24             	mov    %eax,(%esp)
 804a255:	e8 86 eb ff ff       	call   8048de0 <malloc@plt>
 804a25a:	a3 a0 07 05 08       	mov    %eax,0x80507a0
 804a25f:	a1 a0 07 05 08       	mov    0x80507a0,%eax
 804a264:	85 c0                	test   %eax,%eax
 804a266:	0f 94 c0             	sete   %al
 804a269:	84 c0                	test   %al,%al
 804a26b:	74 0c                	je     804a279 <initpool()+0xbf>
 804a26d:	c7 04 24 d9 ed 04 08 	movl   $0x804edd9,(%esp)
 804a274:	e8 6b f7 ff ff       	call   80499e4 <nomemory(char const*)>
 804a279:	c7 45 e8 00 00 00 00 	movl   $0x0,-0x18(%ebp)
 804a280:	eb 44                	jmp    804a2c6 <initpool()+0x10c>
 804a282:	8b 45 e8             	mov    -0x18(%ebp),%eax
 804a285:	69 c0 94 00 00 00    	imul   $0x94,%eax,%eax
 804a28b:	89 c2                	mov    %eax,%edx
 804a28d:	a1 04 07 05 08       	mov    0x8050704,%eax
 804a292:	8d 1c 02             	lea    (%edx,%eax,1),%ebx
 804a295:	c7 04 24 20 00 00 00 	movl   $0x20,(%esp)
 804a29c:	e8 3f eb ff ff       	call   8048de0 <malloc@plt>
 804a2a1:	89 83 84 00 00 00    	mov    %eax,0x84(%ebx)
 804a2a7:	8b 83 84 00 00 00    	mov    0x84(%ebx),%eax
 804a2ad:	85 c0                	test   %eax,%eax
 804a2af:	0f 94 c0             	sete   %al
 804a2b2:	84 c0                	test   %al,%al
 804a2b4:	74 0c                	je     804a2c2 <initpool()+0x108>
 804a2b6:	c7 04 24 ef ed 04 08 	movl   $0x804edef,(%esp)
 804a2bd:	e8 22 f7 ff ff       	call   80499e4 <nomemory(char const*)>
 804a2c2:	83 45 e8 01          	addl   $0x1,-0x18(%ebp)
 804a2c6:	a1 b4 07 05 08       	mov    0x80507b4,%eax
 804a2cb:	39 45 e8             	cmp    %eax,-0x18(%ebp)
 804a2ce:	7c b2                	jl     804a282 <initpool()+0xc8>
 804a2d0:	c7 04 24 20 00 00 00 	movl   $0x20,(%esp)
 804a2d7:	e8 04 eb ff ff       	call   8048de0 <malloc@plt>
 804a2dc:	a3 a4 07 05 08       	mov    %eax,0x80507a4
 804a2e1:	a1 a4 07 05 08       	mov    0x80507a4,%eax
 804a2e6:	85 c0                	test   %eax,%eax
 804a2e8:	0f 94 c0             	sete   %al
 804a2eb:	84 c0                	test   %al,%al
 804a2ed:	74 0c                	je     804a2fb <initpool()+0x141>
 804a2ef:	c7 04 24 d9 ed 04 08 	movl   $0x804edd9,(%esp)
 804a2f6:	e8 e9 f6 ff ff       	call   80499e4 <nomemory(char const*)>
 804a2fb:	c7 45 f4 00 00 00 00 	movl   $0x0,-0xc(%ebp)
 804a302:	e9 77 02 00 00       	jmp    804a57e <initpool()+0x3c4>
 804a307:	8b 45 f4             	mov    -0xc(%ebp),%eax
 804a30a:	69 c0 94 00 00 00    	imul   $0x94,%eax,%eax
 804a310:	89 c2                	mov    %eax,%edx
 804a312:	a1 04 07 05 08       	mov    0x8050704,%eax
 804a317:	8d 0c 02             	lea    (%edx,%eax,1),%ecx
 804a31a:	8b 45 f4             	mov    -0xc(%ebp),%eax
 804a31d:	69 c0 94 00 00 00    	imul   $0x94,%eax,%eax
 804a323:	89 c2                	mov    %eax,%edx
 804a325:	a1 04 07 05 08       	mov    0x8050704,%eax
 804a32a:	01 c2                	add    %eax,%edx
 804a32c:	b8 00 00 00 00       	mov    $0x0,%eax
 804a331:	89 42 7c             	mov    %eax,0x7c(%edx)
 804a334:	8b 42 7c             	mov    0x7c(%edx),%eax
 804a337:	89 41 78             	mov    %eax,0x78(%ecx)
 804a33a:	8b 45 f4             	mov    -0xc(%ebp),%eax
 804a33d:	69 c0 94 00 00 00    	imul   $0x94,%eax,%eax
 804a343:	89 c2                	mov    %eax,%edx
 804a345:	a1 04 07 05 08       	mov    0x8050704,%eax
 804a34a:	8d 0c 02             	lea    (%edx,%eax,1),%ecx
 804a34d:	8b 45 f4             	mov    -0xc(%ebp),%eax
 804a350:	69 c0 94 00 00 00    	imul   $0x94,%eax,%eax
 804a356:	89 c2                	mov    %eax,%edx
 804a358:	a1 04 07 05 08       	mov    0x8050704,%eax
 804a35d:	8d 04 02             	lea    (%edx,%eax,1),%eax
 804a360:	c7 80 8c 00 00 00 00 	movl   $0x0,0x8c(%eax)
 804a367:	00 00 00 
 804a36a:	8b 80 8c 00 00 00    	mov    0x8c(%eax),%eax
 804a370:	89 81 88 00 00 00    	mov    %eax,0x88(%ecx)
 804a376:	a1 90 04 05 08       	mov    0x8050490,%eax
 804a37b:	89 45 e8             	mov    %eax,-0x18(%ebp)
 804a37e:	eb 5a                	jmp    804a3da <initpool()+0x220>
 804a380:	e8 db ea ff ff       	call   8048e60 <rand@plt>
 804a385:	50                   	push   %eax
 804a386:	db 04 24             	fildl  (%esp)
 804a389:	8d 64 24 04          	lea    0x4(%esp),%esp
 804a38d:	dd 05 98 f6 04 08    	fldl   0x804f698
 804a393:	de f9                	fdivrp %st,%st(1)
 804a395:	dd 5d d0             	fstpl  -0x30(%ebp)
 804a398:	8b 45 f4             	mov    -0xc(%ebp),%eax
 804a39b:	69 c0 94 00 00 00    	imul   $0x94,%eax,%eax
 804a3a1:	89 c2                	mov    %eax,%edx
 804a3a3:	a1 04 07 05 08       	mov    0x8050704,%eax
 804a3a8:	01 c2                	add    %eax,%edx
 804a3aa:	8b 4d e8             	mov    -0x18(%ebp),%ecx
 804a3ad:	8b 45 e8             	mov    -0x18(%ebp),%eax
 804a3b0:	d9 04 85 00 06 05 08 	flds   0x8050600(,%eax,4)
 804a3b7:	d9 e8                	fld1   
 804a3b9:	dc 65 d0             	fsubl  -0x30(%ebp)
 804a3bc:	de c9                	fmulp  %st,%st(1)
 804a3be:	8b 45 e8             	mov    -0x18(%ebp),%eax
 804a3c1:	d9 04 85 80 06 05 08 	flds   0x8050680(,%eax,4)
 804a3c8:	dc 4d d0             	fmull  -0x30(%ebp)
 804a3cb:	de c1                	faddp  %st,%st(1)
 804a3cd:	d9 5d c4             	fstps  -0x3c(%ebp)
 804a3d0:	d9 45 c4             	flds   -0x3c(%ebp)
 804a3d3:	d9 1c 8a             	fstps  (%edx,%ecx,4)
 804a3d6:	83 45 e8 01          	addl   $0x1,-0x18(%ebp)
 804a3da:	a1 8c 04 05 08       	mov    0x805048c,%eax
 804a3df:	83 e8 01             	sub    $0x1,%eax
 804a3e2:	3b 45 e8             	cmp    -0x18(%ebp),%eax
 804a3e5:	7d 99                	jge    804a380 <initpool()+0x1c6>
 804a3e7:	c7 45 f0 00 00 00 00 	movl   $0x0,-0x10(%ebp)
 804a3ee:	eb 43                	jmp    804a433 <initpool()+0x279>
 804a3f0:	8b 45 f4             	mov    -0xc(%ebp),%eax
 804a3f3:	69 c0 94 00 00 00    	imul   $0x94,%eax,%eax
 804a3f9:	89 c2                	mov    %eax,%edx
 804a3fb:	a1 04 07 05 08       	mov    0x8050704,%eax
 804a400:	8d 04 02             	lea    (%edx,%eax,1),%eax
 804a403:	8b 90 84 00 00 00    	mov    0x84(%eax),%edx
 804a409:	8b 45 f0             	mov    -0x10(%ebp),%eax
 804a40c:	c1 e0 02             	shl    $0x2,%eax
 804a40f:	8d 1c 02             	lea    (%edx,%eax,1),%ebx
 804a412:	e8 49 ea ff ff       	call   8048e60 <rand@plt>
 804a417:	50                   	push   %eax
 804a418:	db 04 24             	fildl  (%esp)
 804a41b:	8d 64 24 04          	lea    0x4(%esp),%esp
 804a41f:	dd 05 98 f6 04 08    	fldl   0x804f698
 804a425:	de f9                	fdivrp %st,%st(1)
 804a427:	d9 5d c4             	fstps  -0x3c(%ebp)
 804a42a:	d9 45 c4             	flds   -0x3c(%ebp)
 804a42d:	d9 1b                	fstps  (%ebx)
 804a42f:	83 45 f0 01          	addl   $0x1,-0x10(%ebp)
 804a433:	83 7d f0 07          	cmpl   $0x7,-0x10(%ebp)
 804a437:	7e b7                	jle    804a3f0 <initpool()+0x236>
 804a439:	c7 45 f0 00 00 00 00 	movl   $0x0,-0x10(%ebp)
 804a440:	e9 27 01 00 00       	jmp    804a56c <initpool()+0x3b2>
 804a445:	8b 45 f4             	mov    -0xc(%ebp),%eax
 804a448:	69 c0 94 00 00 00    	imul   $0x94,%eax,%eax
 804a44e:	89 c2                	mov    %eax,%edx
 804a450:	a1 04 07 05 08       	mov    0x8050704,%eax
 804a455:	8d 04 02             	lea    (%edx,%eax,1),%eax
 804a458:	8b 90 80 00 00 00    	mov    0x80(%eax),%edx
 804a45e:	8b 45 f0             	mov    -0x10(%ebp),%eax
 804a461:	c1 e0 02             	shl    $0x2,%eax
 804a464:	8d 04 02             	lea    (%edx,%eax,1),%eax
 804a467:	c7 00 00 00 00 00    	movl   $0x0,(%eax)
 804a46d:	a1 98 04 05 08       	mov    0x8050498,%eax
 804a472:	83 e8 01             	sub    $0x1,%eax
 804a475:	3b 45 f0             	cmp    -0x10(%ebp),%eax
 804a478:	75 18                	jne    804a492 <initpool()+0x2d8>
 804a47a:	a1 94 04 05 08       	mov    0x8050494,%eax
 804a47f:	89 c2                	mov    %eax,%edx
 804a481:	8b 45 f0             	mov    -0x10(%ebp),%eax
 804a484:	c1 e0 05             	shl    $0x5,%eax
 804a487:	89 d1                	mov    %edx,%ecx
 804a489:	29 c1                	sub    %eax,%ecx
 804a48b:	89 c8                	mov    %ecx,%eax
 804a48d:	89 45 e0             	mov    %eax,-0x20(%ebp)
 804a490:	eb 07                	jmp    804a499 <initpool()+0x2df>
 804a492:	c7 45 e0 20 00 00 00 	movl   $0x20,-0x20(%ebp)
 804a499:	c7 45 e4 01 00 00 00 	movl   $0x1,-0x1c(%ebp)
 804a4a0:	e9 b7 00 00 00       	jmp    804a55c <initpool()+0x3a2>
 804a4a5:	b8 00 00 00 3f       	mov    $0x3f000000,%eax
 804a4aa:	89 04 24             	mov    %eax,(%esp)
 804a4ad:	e8 6c 2f 00 00       	call   804d41e <flip1(float)>
 804a4b2:	85 c0                	test   %eax,%eax
 804a4b4:	0f 95 c0             	setne  %al
 804a4b7:	84 c0                	test   %al,%al
 804a4b9:	74 4b                	je     804a506 <initpool()+0x34c>
 804a4bb:	8b 45 f4             	mov    -0xc(%ebp),%eax
 804a4be:	69 c0 94 00 00 00    	imul   $0x94,%eax,%eax
 804a4c4:	89 c2                	mov    %eax,%edx
 804a4c6:	a1 04 07 05 08       	mov    0x8050704,%eax
 804a4cb:	8d 04 02             	lea    (%edx,%eax,1),%eax
 804a4ce:	8b 90 80 00 00 00    	mov    0x80(%eax),%edx
 804a4d4:	8b 45 f0             	mov    -0x10(%ebp),%eax
 804a4d7:	c1 e0 02             	shl    $0x2,%eax
 804a4da:	8d 0c 02             	lea    (%edx,%eax,1),%ecx
 804a4dd:	8b 45 f4             	mov    -0xc(%ebp),%eax
 804a4e0:	69 c0 94 00 00 00    	imul   $0x94,%eax,%eax
 804a4e6:	89 c2                	mov    %eax,%edx
 804a4e8:	a1 04 07 05 08       	mov    0x8050704,%eax
 804a4ed:	8d 04 02             	lea    (%edx,%eax,1),%eax
 804a4f0:	8b 90 80 00 00 00    	mov    0x80(%eax),%edx
 804a4f6:	8b 45 f0             	mov    -0x10(%ebp),%eax
 804a4f9:	c1 e0 02             	shl    $0x2,%eax
 804a4fc:	8d 04 02             	lea    (%edx,%eax,1),%eax
 804a4ff:	8b 00                	mov    (%eax),%eax
 804a501:	0b 45 dc             	or     -0x24(%ebp),%eax
 804a504:	89 01                	mov    %eax,(%ecx)
 804a506:	8b 45 e4             	mov    -0x1c(%ebp),%eax
 804a509:	3b 45 e0             	cmp    -0x20(%ebp),%eax
 804a50c:	74 4a                	je     804a558 <initpool()+0x39e>
 804a50e:	8b 45 f4             	mov    -0xc(%ebp),%eax
 804a511:	69 c0 94 00 00 00    	imul   $0x94,%eax,%eax
 804a517:	89 c2                	mov    %eax,%edx
 804a519:	a1 04 07 05 08       	mov    0x8050704,%eax
 804a51e:	8d 04 02             	lea    (%edx,%eax,1),%eax
 804a521:	8b 90 80 00 00 00    	mov    0x80(%eax),%edx
 804a527:	8b 45 f0             	mov    -0x10(%ebp),%eax
 804a52a:	c1 e0 02             	shl    $0x2,%eax
 804a52d:	8d 0c 02             	lea    (%edx,%eax,1),%ecx
 804a530:	8b 45 f4             	mov    -0xc(%ebp),%eax
 804a533:	69 c0 94 00 00 00    	imul   $0x94,%eax,%eax
 804a539:	89 c2                	mov    %eax,%edx
 804a53b:	a1 04 07 05 08       	mov    0x8050704,%eax
 804a540:	8d 04 02             	lea    (%edx,%eax,1),%eax
 804a543:	8b 90 80 00 00 00    	mov    0x80(%eax),%edx
 804a549:	8b 45 f0             	mov    -0x10(%ebp),%eax
 804a54c:	c1 e0 02             	shl    $0x2,%eax
 804a54f:	8d 04 02             	lea    (%edx,%eax,1),%eax
 804a552:	8b 00                	mov    (%eax),%eax
 804a554:	01 c0                	add    %eax,%eax
 804a556:	89 01                	mov    %eax,(%ecx)
 804a558:	83 45 e4 01          	addl   $0x1,-0x1c(%ebp)
 804a55c:	8b 45 e4             	mov    -0x1c(%ebp),%eax
 804a55f:	3b 45 e0             	cmp    -0x20(%ebp),%eax
 804a562:	0f 8e 3d ff ff ff    	jle    804a4a5 <initpool()+0x2eb>
 804a568:	83 45 f0 01          	addl   $0x1,-0x10(%ebp)
 804a56c:	a1 98 04 05 08       	mov    0x8050498,%eax
 804a571:	39 45 f0             	cmp    %eax,-0x10(%ebp)
 804a574:	0f 8c cb fe ff ff    	jl     804a445 <initpool()+0x28b>
 804a57a:	83 45 f4 01          	addl   $0x1,-0xc(%ebp)
 804a57e:	a1 b4 07 05 08       	mov    0x80507b4,%eax
 804a583:	39 45 f4             	cmp    %eax,-0xc(%ebp)
 804a586:	0f 8c 7b fd ff ff    	jl     804a307 <initpool()+0x14d>
 804a58c:	a1 98 04 05 08       	mov    0x8050498,%eax
 804a591:	8b 15 04 07 05 08    	mov    0x8050704,%edx
 804a597:	89 44 24 08          	mov    %eax,0x8(%esp)
 804a59b:	c7 44 24 04 20 07 05 	movl   $0x8050720,0x4(%esp)
 804a5a2:	08 
 804a5a3:	89 14 24             	mov    %edx,(%esp)
 804a5a6:	e8 21 f3 ff ff       	call   80498cc <copy_individual(indiv*, indiv*, int)>
 804a5ab:	83 c4 54             	add    $0x54,%esp
 804a5ae:	5b                   	pop    %ebx
 804a5af:	5d                   	pop    %ebp
 804a5b0:	c3                   	ret    
 804a5b1:	90                   	nop    

0804a5b2 <GAThread::statistics(int)>:
 804a5b2:	55                   	push   %ebp
 804a5b3:	89 e5                	mov    %esp,%ebp
 804a5b5:	53                   	push   %ebx
 804a5b6:	81 ec d4 00 00 00    	sub    $0xd4,%esp
 804a5bc:	c7 45 f4 00 00 00 00 	movl   $0x0,-0xc(%ebp)
 804a5c3:	e9 95 00 00 00       	jmp    804a65d <GAThread::statistics(int)+0xab>
 804a5c8:	8b 45 08             	mov    0x8(%ebp),%eax
 804a5cb:	8b 90 10 12 00 00    	mov    0x1210(%eax),%edx
 804a5d1:	8b 45 f4             	mov    -0xc(%ebp),%eax
 804a5d4:	69 c0 94 00 00 00    	imul   $0x94,%eax,%eax
 804a5da:	8d 1c 02             	lea    (%edx,%eax,1),%ebx
 804a5dd:	8b 45 08             	mov    0x8(%ebp),%eax
 804a5e0:	8b 90 10 12 00 00    	mov    0x1210(%eax),%edx
 804a5e6:	8b 45 f4             	mov    -0xc(%ebp),%eax
 804a5e9:	69 c0 94 00 00 00    	imul   $0x94,%eax,%eax
 804a5ef:	8d 04 02             	lea    (%edx,%eax,1),%eax
 804a5f2:	8b 88 84 00 00 00    	mov    0x84(%eax),%ecx
 804a5f8:	8b 45 08             	mov    0x8(%ebp),%eax
 804a5fb:	8b 90 10 12 00 00    	mov    0x1210(%eax),%edx
 804a601:	8b 45 f4             	mov    -0xc(%ebp),%eax
 804a604:	69 c0 94 00 00 00    	imul   $0x94,%eax,%eax
 804a60a:	8d 04 02             	lea    (%edx,%eax,1),%eax
 804a60d:	8b 80 80 00 00 00    	mov    0x80(%eax),%eax
 804a613:	89 4c 24 08          	mov    %ecx,0x8(%esp)
 804a617:	89 44 24 04          	mov    %eax,0x4(%esp)
 804a61b:	8b 45 08             	mov    0x8(%ebp),%eax
 804a61e:	89 04 24             	mov    %eax,(%esp)
 804a621:	e8 ce 30 00 00       	call   804d6f4 <GAThread::objectivenew(unsigned int*, float*)>
 804a626:	d9 5b 78             	fstps  0x78(%ebx)
 804a629:	8b 45 08             	mov    0x8(%ebp),%eax
 804a62c:	8b 90 10 12 00 00    	mov    0x1210(%eax),%edx
 804a632:	8b 45 f4             	mov    -0xc(%ebp),%eax
 804a635:	69 c0 94 00 00 00    	imul   $0x94,%eax,%eax
 804a63b:	8d 0c 02             	lea    (%edx,%eax,1),%ecx
 804a63e:	8b 45 08             	mov    0x8(%ebp),%eax
 804a641:	8b 90 10 12 00 00    	mov    0x1210(%eax),%edx
 804a647:	8b 45 f4             	mov    -0xc(%ebp),%eax
 804a64a:	69 c0 94 00 00 00    	imul   $0x94,%eax,%eax
 804a650:	8d 04 02             	lea    (%edx,%eax,1),%eax
 804a653:	8b 40 78             	mov    0x78(%eax),%eax
 804a656:	89 41 7c             	mov    %eax,0x7c(%ecx)
 804a659:	83 45 f4 01          	addl   $0x1,-0xc(%ebp)
 804a65d:	8b 45 08             	mov    0x8(%ebp),%eax
 804a660:	8b 00                	mov    (%eax),%eax
 804a662:	83 e8 01             	sub    $0x1,%eax
 804a665:	3b 45 f4             	cmp    -0xc(%ebp),%eax
 804a668:	0f 8d 5a ff ff ff    	jge    804a5c8 <GAThread::statistics(int)+0x16>
 804a66e:	83 7d 0c 00          	cmpl   $0x0,0xc(%ebp)
 804a672:	75 12                	jne    804a686 <GAThread::statistics(int)+0xd4>
 804a674:	8b 45 08             	mov    0x8(%ebp),%eax
 804a677:	8b 90 8c 12 00 00    	mov    0x128c(%eax),%edx
 804a67d:	8b 45 08             	mov    0x8(%ebp),%eax
 804a680:	89 90 90 12 00 00    	mov    %edx,0x1290(%eax)
 804a686:	8b 45 08             	mov    0x8(%ebp),%eax
 804a689:	8b 80 10 12 00 00    	mov    0x1210(%eax),%eax
 804a68f:	8d 8d 44 ff ff ff    	lea    -0xbc(%ebp),%ecx
 804a695:	89 c2                	mov    %eax,%edx
 804a697:	b8 94 00 00 00       	mov    $0x94,%eax
 804a69c:	89 44 24 08          	mov    %eax,0x8(%esp)
 804a6a0:	89 54 24 04          	mov    %edx,0x4(%esp)
 804a6a4:	89 0c 24             	mov    %ecx,(%esp)
 804a6a7:	e8 94 e6 ff ff       	call   8048d40 <memcpy@plt>
 804a6ac:	8b 45 08             	mov    0x8(%ebp),%eax
 804a6af:	8b 80 10 12 00 00    	mov    0x1210(%eax),%eax
 804a6b5:	8b 50 78             	mov    0x78(%eax),%edx
 804a6b8:	8b 45 08             	mov    0x8(%ebp),%eax
 804a6bb:	89 90 1c 10 00 00    	mov    %edx,0x101c(%eax)
 804a6c1:	8b 45 08             	mov    0x8(%ebp),%eax
 804a6c4:	8b 90 1c 10 00 00    	mov    0x101c(%eax),%edx
 804a6ca:	8b 45 08             	mov    0x8(%ebp),%eax
 804a6cd:	89 90 18 10 00 00    	mov    %edx,0x1018(%eax)
 804a6d3:	8b 45 08             	mov    0x8(%ebp),%eax
 804a6d6:	8b 80 10 12 00 00    	mov    0x1210(%eax),%eax
 804a6dc:	8b 50 78             	mov    0x78(%eax),%edx
 804a6df:	8b 45 08             	mov    0x8(%ebp),%eax
 804a6e2:	89 90 24 10 00 00    	mov    %edx,0x1024(%eax)
 804a6e8:	8b 45 08             	mov    0x8(%ebp),%eax
 804a6eb:	8b 90 24 10 00 00    	mov    0x1024(%eax),%edx
 804a6f1:	8b 45 08             	mov    0x8(%ebp),%eax
 804a6f4:	89 90 20 10 00 00    	mov    %edx,0x1020(%eax)
 804a6fa:	c7 45 f4 00 00 00 00 	movl   $0x0,-0xc(%ebp)
 804a701:	eb 37                	jmp    804a73a <GAThread::statistics(int)+0x188>
 804a703:	8b 5d f4             	mov    -0xc(%ebp),%ebx
 804a706:	8b 4d f4             	mov    -0xc(%ebp),%ecx
 804a709:	8b 45 08             	mov    0x8(%ebp),%eax
 804a70c:	8b 90 10 12 00 00    	mov    0x1210(%eax),%edx
 804a712:	8b 45 f4             	mov    -0xc(%ebp),%eax
 804a715:	8b 14 82             	mov    (%edx,%eax,4),%edx
 804a718:	8b 45 08             	mov    0x8(%ebp),%eax
 804a71b:	89 94 88 28 10 00 00 	mov    %edx,0x1028(%eax,%ecx,4)
 804a722:	8b 45 08             	mov    0x8(%ebp),%eax
 804a725:	8b 94 88 28 10 00 00 	mov    0x1028(%eax,%ecx,4),%edx
 804a72c:	8b 45 08             	mov    0x8(%ebp),%eax
 804a72f:	89 94 98 a0 10 00 00 	mov    %edx,0x10a0(%eax,%ebx,4)
 804a736:	83 45 f4 01          	addl   $0x1,-0xc(%ebp)
 804a73a:	8b 45 08             	mov    0x8(%ebp),%eax
 804a73d:	8b 40 18             	mov    0x18(%eax),%eax
 804a740:	83 e8 01             	sub    $0x1,%eax
 804a743:	3b 45 f4             	cmp    -0xc(%ebp),%eax
 804a746:	7d bb                	jge    804a703 <GAThread::statistics(int)+0x151>
 804a748:	c7 45 f4 01 00 00 00 	movl   $0x1,-0xc(%ebp)
 804a74f:	e9 b0 02 00 00       	jmp    804aa04 <GAThread::statistics(int)+0x452>
 804a754:	8b 45 08             	mov    0x8(%ebp),%eax
 804a757:	8b 80 fc 0f 00 00    	mov    0xffc(%eax),%eax
 804a75d:	50                   	push   %eax
 804a75e:	db 04 24             	fildl  (%esp)
 804a761:	8d 64 24 04          	lea    0x4(%esp),%esp
 804a765:	d9 45 bc             	flds   -0x44(%ebp)
 804a768:	de c9                	fmulp  %st,%st(1)
 804a76a:	8b 45 08             	mov    0x8(%ebp),%eax
 804a76d:	8b 80 fc 0f 00 00    	mov    0xffc(%eax),%eax
 804a773:	50                   	push   %eax
 804a774:	db 04 24             	fildl  (%esp)
 804a777:	8d 64 24 04          	lea    0x4(%esp),%esp
 804a77b:	8b 45 08             	mov    0x8(%ebp),%eax
 804a77e:	8b 90 10 12 00 00    	mov    0x1210(%eax),%edx
 804a784:	8b 45 f4             	mov    -0xc(%ebp),%eax
 804a787:	69 c0 94 00 00 00    	imul   $0x94,%eax,%eax
 804a78d:	8d 04 02             	lea    (%edx,%eax,1),%eax
 804a790:	d9 40 78             	flds   0x78(%eax)
 804a793:	de c9                	fmulp  %st,%st(1)
 804a795:	d9 c9                	fxch   %st(1)
 804a797:	da e9                	fucompp 
 804a799:	df e0                	fnstsw %ax
 804a79b:	9e                   	sahf   
 804a79c:	77 02                	ja     804a7a0 <GAThread::statistics(int)+0x1ee>
 804a79e:	eb 32                	jmp    804a7d2 <GAThread::statistics(int)+0x220>
 804a7a0:	8b 45 08             	mov    0x8(%ebp),%eax
 804a7a3:	8b 90 10 12 00 00    	mov    0x1210(%eax),%edx
 804a7a9:	8b 45 f4             	mov    -0xc(%ebp),%eax
 804a7ac:	69 c0 94 00 00 00    	imul   $0x94,%eax,%eax
 804a7b2:	8d 04 02             	lea    (%edx,%eax,1),%eax
 804a7b5:	8d 8d 44 ff ff ff    	lea    -0xbc(%ebp),%ecx
 804a7bb:	89 c2                	mov    %eax,%edx
 804a7bd:	b8 94 00 00 00       	mov    $0x94,%eax
 804a7c2:	89 44 24 08          	mov    %eax,0x8(%esp)
 804a7c6:	89 54 24 04          	mov    %edx,0x4(%esp)
 804a7ca:	89 0c 24             	mov    %ecx,(%esp)
 804a7cd:	e8 6e e5 ff ff       	call   8048d40 <memcpy@plt>
 804a7d2:	8b 45 08             	mov    0x8(%ebp),%eax
 804a7d5:	8b 80 fc 0f 00 00    	mov    0xffc(%eax),%eax
 804a7db:	50                   	push   %eax
 804a7dc:	db 04 24             	fildl  (%esp)
 804a7df:	8d 64 24 04          	lea    0x4(%esp),%esp
 804a7e3:	8b 45 08             	mov    0x8(%ebp),%eax
 804a7e6:	d9 80 20 10 00 00    	flds   0x1020(%eax)
 804a7ec:	de c9                	fmulp  %st,%st(1)
 804a7ee:	8b 45 08             	mov    0x8(%ebp),%eax
 804a7f1:	8b 80 fc 0f 00 00    	mov    0xffc(%eax),%eax
 804a7f7:	50                   	push   %eax
 804a7f8:	db 04 24             	fildl  (%esp)
 804a7fb:	8d 64 24 04          	lea    0x4(%esp),%esp
 804a7ff:	8b 45 08             	mov    0x8(%ebp),%eax
 804a802:	8b 90 10 12 00 00    	mov    0x1210(%eax),%edx
 804a808:	8b 45 f4             	mov    -0xc(%ebp),%eax
 804a80b:	69 c0 94 00 00 00    	imul   $0x94,%eax,%eax
 804a811:	8d 04 02             	lea    (%edx,%eax,1),%eax
 804a814:	d9 40 78             	flds   0x78(%eax)
 804a817:	de c9                	fmulp  %st,%st(1)
 804a819:	da e9                	fucompp 
 804a81b:	df e0                	fnstsw %ax
 804a81d:	9e                   	sahf   
 804a81e:	77 02                	ja     804a822 <GAThread::statistics(int)+0x270>
 804a820:	eb 21                	jmp    804a843 <GAThread::statistics(int)+0x291>
 804a822:	8b 45 08             	mov    0x8(%ebp),%eax
 804a825:	8b 90 10 12 00 00    	mov    0x1210(%eax),%edx
 804a82b:	8b 45 f4             	mov    -0xc(%ebp),%eax
 804a82e:	69 c0 94 00 00 00    	imul   $0x94,%eax,%eax
 804a834:	8d 04 02             	lea    (%edx,%eax,1),%eax
 804a837:	8b 50 78             	mov    0x78(%eax),%edx
 804a83a:	8b 45 08             	mov    0x8(%ebp),%eax
 804a83d:	89 90 20 10 00 00    	mov    %edx,0x1020(%eax)
 804a843:	8b 45 08             	mov    0x8(%ebp),%eax
 804a846:	8b 80 fc 0f 00 00    	mov    0xffc(%eax),%eax
 804a84c:	50                   	push   %eax
 804a84d:	db 04 24             	fildl  (%esp)
 804a850:	8d 64 24 04          	lea    0x4(%esp),%esp
 804a854:	8b 45 08             	mov    0x8(%ebp),%eax
 804a857:	d9 80 24 10 00 00    	flds   0x1024(%eax)
 804a85d:	de c9                	fmulp  %st,%st(1)
 804a85f:	8b 45 08             	mov    0x8(%ebp),%eax
 804a862:	8b 80 fc 0f 00 00    	mov    0xffc(%eax),%eax
 804a868:	50                   	push   %eax
 804a869:	db 04 24             	fildl  (%esp)
 804a86c:	8d 64 24 04          	lea    0x4(%esp),%esp
 804a870:	8b 45 08             	mov    0x8(%ebp),%eax
 804a873:	8b 90 10 12 00 00    	mov    0x1210(%eax),%edx
 804a879:	8b 45 f4             	mov    -0xc(%ebp),%eax
 804a87c:	69 c0 94 00 00 00    	imul   $0x94,%eax,%eax
 804a882:	8d 04 02             	lea    (%edx,%eax,1),%eax
 804a885:	d9 40 78             	flds   0x78(%eax)
 804a888:	de c9                	fmulp  %st,%st(1)
 804a88a:	d9 c9                	fxch   %st(1)
 804a88c:	da e9                	fucompp 
 804a88e:	df e0                	fnstsw %ax
 804a890:	9e                   	sahf   
 804a891:	77 02                	ja     804a895 <GAThread::statistics(int)+0x2e3>
 804a893:	eb 21                	jmp    804a8b6 <GAThread::statistics(int)+0x304>
 804a895:	8b 45 08             	mov    0x8(%ebp),%eax
 804a898:	8b 90 10 12 00 00    	mov    0x1210(%eax),%edx
 804a89e:	8b 45 f4             	mov    -0xc(%ebp),%eax
 804a8a1:	69 c0 94 00 00 00    	imul   $0x94,%eax,%eax
 804a8a7:	8d 04 02             	lea    (%edx,%eax,1),%eax
 804a8aa:	8b 50 78             	mov    0x78(%eax),%edx
 804a8ad:	8b 45 08             	mov    0x8(%ebp),%eax
 804a8b0:	89 90 24 10 00 00    	mov    %edx,0x1024(%eax)
 804a8b6:	8b 45 08             	mov    0x8(%ebp),%eax
 804a8b9:	d9 80 18 10 00 00    	flds   0x1018(%eax)
 804a8bf:	8b 45 08             	mov    0x8(%ebp),%eax
 804a8c2:	8b 90 10 12 00 00    	mov    0x1210(%eax),%edx
 804a8c8:	8b 45 f4             	mov    -0xc(%ebp),%eax
 804a8cb:	69 c0 94 00 00 00    	imul   $0x94,%eax,%eax
 804a8d1:	8d 04 02             	lea    (%edx,%eax,1),%eax
 804a8d4:	d9 40 78             	flds   0x78(%eax)
 804a8d7:	de c1                	faddp  %st,%st(1)
 804a8d9:	8b 45 08             	mov    0x8(%ebp),%eax
 804a8dc:	d9 98 18 10 00 00    	fstps  0x1018(%eax)
 804a8e2:	c7 45 f0 00 00 00 00 	movl   $0x0,-0x10(%ebp)
 804a8e9:	e9 00 01 00 00       	jmp    804a9ee <GAThread::statistics(int)+0x43c>
 804a8ee:	8b 45 08             	mov    0x8(%ebp),%eax
 804a8f1:	8b 80 fc 0f 00 00    	mov    0xffc(%eax),%eax
 804a8f7:	50                   	push   %eax
 804a8f8:	db 04 24             	fildl  (%esp)
 804a8fb:	8d 64 24 04          	lea    0x4(%esp),%esp
 804a8ff:	8b 55 f0             	mov    -0x10(%ebp),%edx
 804a902:	8b 45 08             	mov    0x8(%ebp),%eax
 804a905:	d9 84 90 a0 10 00 00 	flds   0x10a0(%eax,%edx,4)
 804a90c:	de c9                	fmulp  %st,%st(1)
 804a90e:	8b 45 08             	mov    0x8(%ebp),%eax
 804a911:	8b 80 fc 0f 00 00    	mov    0xffc(%eax),%eax
 804a917:	50                   	push   %eax
 804a918:	db 04 24             	fildl  (%esp)
 804a91b:	8d 64 24 04          	lea    0x4(%esp),%esp
 804a91f:	8b 45 08             	mov    0x8(%ebp),%eax
 804a922:	8b 90 10 12 00 00    	mov    0x1210(%eax),%edx
 804a928:	8b 45 f4             	mov    -0xc(%ebp),%eax
 804a92b:	69 c0 94 00 00 00    	imul   $0x94,%eax,%eax
 804a931:	01 c2                	add    %eax,%edx
 804a933:	8b 45 f0             	mov    -0x10(%ebp),%eax
 804a936:	d9 04 82             	flds   (%edx,%eax,4)
 804a939:	de c9                	fmulp  %st,%st(1)
 804a93b:	da e9                	fucompp 
 804a93d:	df e0                	fnstsw %ax
 804a93f:	9e                   	sahf   
 804a940:	77 02                	ja     804a944 <GAThread::statistics(int)+0x392>
 804a942:	eb 27                	jmp    804a96b <GAThread::statistics(int)+0x3b9>
 804a944:	8b 4d f0             	mov    -0x10(%ebp),%ecx
 804a947:	8b 45 08             	mov    0x8(%ebp),%eax
 804a94a:	8b 90 10 12 00 00    	mov    0x1210(%eax),%edx
 804a950:	8b 45 f4             	mov    -0xc(%ebp),%eax
 804a953:	69 c0 94 00 00 00    	imul   $0x94,%eax,%eax
 804a959:	01 c2                	add    %eax,%edx
 804a95b:	8b 45 f0             	mov    -0x10(%ebp),%eax
 804a95e:	8b 14 82             	mov    (%edx,%eax,4),%edx
 804a961:	8b 45 08             	mov    0x8(%ebp),%eax
 804a964:	89 94 88 a0 10 00 00 	mov    %edx,0x10a0(%eax,%ecx,4)
 804a96b:	8b 45 08             	mov    0x8(%ebp),%eax
 804a96e:	8b 80 fc 0f 00 00    	mov    0xffc(%eax),%eax
 804a974:	50                   	push   %eax
 804a975:	db 04 24             	fildl  (%esp)
 804a978:	8d 64 24 04          	lea    0x4(%esp),%esp
 804a97c:	8b 55 f0             	mov    -0x10(%ebp),%edx
 804a97f:	8b 45 08             	mov    0x8(%ebp),%eax
 804a982:	d9 84 90 28 10 00 00 	flds   0x1028(%eax,%edx,4)
 804a989:	de c9                	fmulp  %st,%st(1)
 804a98b:	8b 45 08             	mov    0x8(%ebp),%eax
 804a98e:	8b 80 fc 0f 00 00    	mov    0xffc(%eax),%eax
 804a994:	50                   	push   %eax
 804a995:	db 04 24             	fildl  (%esp)
 804a998:	8d 64 24 04          	lea    0x4(%esp),%esp
 804a99c:	8b 45 08             	mov    0x8(%ebp),%eax
 804a99f:	8b 90 10 12 00 00    	mov    0x1210(%eax),%edx
 804a9a5:	8b 45 f4             	mov    -0xc(%ebp),%eax
 804a9a8:	69 c0 94 00 00 00    	imul   $0x94,%eax,%eax
 804a9ae:	01 c2                	add    %eax,%edx
 804a9b0:	8b 45 f0             	mov    -0x10(%ebp),%eax
 804a9b3:	d9 04 82             	flds   (%edx,%eax,4)
 804a9b6:	de c9                	fmulp  %st,%st(1)
 804a9b8:	d9 c9                	fxch   %st(1)
 804a9ba:	da e9                	fucompp 
 804a9bc:	df e0                	fnstsw %ax
 804a9be:	9e                   	sahf   
 804a9bf:	77 02                	ja     804a9c3 <GAThread::statistics(int)+0x411>
 804a9c1:	eb 27                	jmp    804a9ea <GAThread::statistics(int)+0x438>
 804a9c3:	8b 4d f0             	mov    -0x10(%ebp),%ecx
 804a9c6:	8b 45 08             	mov    0x8(%ebp),%eax
 804a9c9:	8b 90 10 12 00 00    	mov    0x1210(%eax),%edx
 804a9cf:	8b 45 f4             	mov    -0xc(%ebp),%eax
 804a9d2:	69 c0 94 00 00 00    	imul   $0x94,%eax,%eax
 804a9d8:	01 c2                	add    %eax,%edx
 804a9da:	8b 45 f0             	mov    -0x10(%ebp),%eax
 804a9dd:	8b 14 82             	mov    (%edx,%eax,4),%edx
 804a9e0:	8b 45 08             	mov    0x8(%ebp),%eax
 804a9e3:	89 94 88 28 10 00 00 	mov    %edx,0x1028(%eax,%ecx,4)
 804a9ea:	83 45 f0 01          	addl   $0x1,-0x10(%ebp)
 804a9ee:	8b 45 08             	mov    0x8(%ebp),%eax
 804a9f1:	8b 40 18             	mov    0x18(%eax),%eax
 804a9f4:	83 e8 01             	sub    $0x1,%eax
 804a9f7:	3b 45 f0             	cmp    -0x10(%ebp),%eax
 804a9fa:	0f 8d ee fe ff ff    	jge    804a8ee <GAThread::statistics(int)+0x33c>
 804aa00:	83 45 f4 01          	addl   $0x1,-0xc(%ebp)
 804aa04:	8b 45 08             	mov    0x8(%ebp),%eax
 804aa07:	8b 00                	mov    (%eax),%eax
 804aa09:	83 e8 01             	sub    $0x1,%eax
 804aa0c:	3b 45 f4             	cmp    -0xc(%ebp),%eax
 804aa0f:	0f 8d 3f fd ff ff    	jge    804a754 <GAThread::statistics(int)+0x1a2>
 804aa15:	8b 45 08             	mov    0x8(%ebp),%eax
 804aa18:	d9 80 18 10 00 00    	flds   0x1018(%eax)
 804aa1e:	8b 45 08             	mov    0x8(%ebp),%eax
 804aa21:	8b 00                	mov    (%eax),%eax
 804aa23:	50                   	push   %eax
 804aa24:	db 04 24             	fildl  (%esp)
 804aa27:	8d 64 24 04          	lea    0x4(%esp),%esp
 804aa2b:	de f9                	fdivrp %st,%st(1)
 804aa2d:	8b 45 08             	mov    0x8(%ebp),%eax
 804aa30:	d9 98 1c 10 00 00    	fstps  0x101c(%eax)
 804aa36:	8b 45 08             	mov    0x8(%ebp),%eax
 804aa39:	8b 80 fc 0f 00 00    	mov    0xffc(%eax),%eax
 804aa3f:	50                   	push   %eax
 804aa40:	db 04 24             	fildl  (%esp)
 804aa43:	8d 64 24 04          	lea    0x4(%esp),%esp
 804aa47:	d9 45 bc             	flds   -0x44(%ebp)
 804aa4a:	de c9                	fmulp  %st,%st(1)
 804aa4c:	8b 45 08             	mov    0x8(%ebp),%eax
 804aa4f:	8b 80 fc 0f 00 00    	mov    0xffc(%eax),%eax
 804aa55:	50                   	push   %eax
 804aa56:	db 04 24             	fildl  (%esp)
 804aa59:	8d 64 24 04          	lea    0x4(%esp),%esp
 804aa5d:	8b 45 08             	mov    0x8(%ebp),%eax
 804aa60:	d9 80 8c 12 00 00    	flds   0x128c(%eax)
 804aa66:	de c9                	fmulp  %st,%st(1)
 804aa68:	da e9                	fucompp 
 804aa6a:	df e0                	fnstsw %ax
 804aa6c:	9e                   	sahf   
 804aa6d:	77 02                	ja     804aa71 <GAThread::statistics(int)+0x4bf>
 804aa6f:	eb 2e                	jmp    804aa9f <GAThread::statistics(int)+0x4ed>
 804aa71:	8b 45 08             	mov    0x8(%ebp),%eax
 804aa74:	8b 40 24             	mov    0x24(%eax),%eax
 804aa77:	8b 55 08             	mov    0x8(%ebp),%edx
 804aa7a:	81 c2 14 12 00 00    	add    $0x1214,%edx
 804aa80:	89 44 24 08          	mov    %eax,0x8(%esp)
 804aa84:	89 54 24 04          	mov    %edx,0x4(%esp)
 804aa88:	8d 85 44 ff ff ff    	lea    -0xbc(%ebp),%eax
 804aa8e:	89 04 24             	mov    %eax,(%esp)
 804aa91:	e8 36 ee ff ff       	call   80498cc <copy_individual(indiv*, indiv*, int)>
 804aa96:	8b 55 08             	mov    0x8(%ebp),%edx
 804aa99:	8b 45 0c             	mov    0xc(%ebp),%eax
 804aa9c:	89 42 14             	mov    %eax,0x14(%edx)
 804aa9f:	8b 4d 0c             	mov    0xc(%ebp),%ecx
 804aaa2:	8b 55 bc             	mov    -0x44(%ebp),%edx
 804aaa5:	8b 45 08             	mov    0x8(%ebp),%eax
 804aaa8:	89 94 88 a8 12 00 00 	mov    %edx,0x12a8(%eax,%ecx,4)
 804aaaf:	81 c4 d4 00 00 00    	add    $0xd4,%esp
 804aab5:	5b                   	pop    %ebx
 804aab6:	5d                   	pop    %ebp
 804aab7:	c3                   	ret    

0804aab8 <GAThread::binary_xover(unsigned int*, float*, unsigned int*, float*, unsigned int*, float*, unsigned int*, float*)>:
 804aab8:	55                   	push   %ebp
 804aab9:	89 e5                	mov    %esp,%ebp
 804aabb:	53                   	push   %ebx
 804aabc:	83 ec 44             	sub    $0x44,%esp
 804aabf:	c7 45 e8 01 00 00 00 	movl   $0x1,-0x18(%ebp)
 804aac6:	8b 45 08             	mov    0x8(%ebp),%eax
 804aac9:	8b 40 48             	mov    0x48(%eax),%eax
 804aacc:	85 c0                	test   %eax,%eax
 804aace:	0f 84 14 03 00 00    	je     804ade8 <GAThread::binary_xover(unsigned int*, float*, unsigned int*, float*, unsigned int*, float*, unsigned int*, float*)+0x330>
 804aad4:	83 7d 0c 00          	cmpl   $0x0,0xc(%ebp)
 804aad8:	75 0c                	jne    804aae6 <GAThread::binary_xover(unsigned int*, float*, unsigned int*, float*, unsigned int*, float*, unsigned int*, float*)+0x2e>
 804aada:	c7 04 24 fc ed 04 08 	movl   $0x804edfc,(%esp)
 804aae1:	e8 e6 ea ff ff       	call   80495cc <error_ptr_null(char const*)>
 804aae6:	83 7d 14 00          	cmpl   $0x0,0x14(%ebp)
 804aaea:	75 0c                	jne    804aaf8 <GAThread::binary_xover(unsigned int*, float*, unsigned int*, float*, unsigned int*, float*, unsigned int*, float*)+0x40>
 804aaec:	c7 04 24 14 ee 04 08 	movl   $0x804ee14,(%esp)
 804aaf3:	e8 d4 ea ff ff       	call   80495cc <error_ptr_null(char const*)>
 804aaf8:	83 7d 1c 00          	cmpl   $0x0,0x1c(%ebp)
 804aafc:	75 0c                	jne    804ab0a <GAThread::binary_xover(unsigned int*, float*, unsigned int*, float*, unsigned int*, float*, unsigned int*, float*)+0x52>
 804aafe:	c7 04 24 2c ee 04 08 	movl   $0x804ee2c,(%esp)
 804ab05:	e8 c2 ea ff ff       	call   80495cc <error_ptr_null(char const*)>
 804ab0a:	83 7d 24 00          	cmpl   $0x0,0x24(%ebp)
 804ab0e:	75 0c                	jne    804ab1c <GAThread::binary_xover(unsigned int*, float*, unsigned int*, float*, unsigned int*, float*, unsigned int*, float*)+0x64>
 804ab10:	c7 04 24 43 ee 04 08 	movl   $0x804ee43,(%esp)
 804ab17:	e8 b0 ea ff ff       	call   80495cc <error_ptr_null(char const*)>
 804ab1c:	8b 45 0c             	mov    0xc(%ebp),%eax
 804ab1f:	8b 00                	mov    (%eax),%eax
 804ab21:	89 c1                	mov    %eax,%ecx
 804ab23:	23 4d e8             	and    -0x18(%ebp),%ecx
 804ab26:	8b 45 0c             	mov    0xc(%ebp),%eax
 804ab29:	8b 10                	mov    (%eax),%edx
 804ab2b:	8b 45 e8             	mov    -0x18(%ebp),%eax
 804ab2e:	01 c0                	add    %eax,%eax
 804ab30:	21 d0                	and    %edx,%eax
 804ab32:	01 c1                	add    %eax,%ecx
 804ab34:	8b 45 0c             	mov    0xc(%ebp),%eax
 804ab37:	8b 10                	mov    (%eax),%edx
 804ab39:	8b 45 e8             	mov    -0x18(%ebp),%eax
 804ab3c:	c1 e0 02             	shl    $0x2,%eax
 804ab3f:	21 d0                	and    %edx,%eax
 804ab41:	8d 04 01             	lea    (%ecx,%eax,1),%eax
 804ab44:	83 c0 01             	add    $0x1,%eax
 804ab47:	89 45 e0             	mov    %eax,-0x20(%ebp)
 804ab4a:	8b 45 14             	mov    0x14(%ebp),%eax
 804ab4d:	8b 00                	mov    (%eax),%eax
 804ab4f:	89 c1                	mov    %eax,%ecx
 804ab51:	23 4d e8             	and    -0x18(%ebp),%ecx
 804ab54:	8b 45 14             	mov    0x14(%ebp),%eax
 804ab57:	8b 10                	mov    (%eax),%edx
 804ab59:	8b 45 e8             	mov    -0x18(%ebp),%eax
 804ab5c:	01 c0                	add    %eax,%eax
 804ab5e:	21 d0                	and    %edx,%eax
 804ab60:	01 c1                	add    %eax,%ecx
 804ab62:	8b 45 14             	mov    0x14(%ebp),%eax
 804ab65:	8b 10                	mov    (%eax),%edx
 804ab67:	8b 45 e8             	mov    -0x18(%ebp),%eax
 804ab6a:	c1 e0 02             	shl    $0x2,%eax
 804ab6d:	21 d0                	and    %edx,%eax
 804ab6f:	8d 04 01             	lea    (%ecx,%eax,1),%eax
 804ab72:	83 c0 01             	add    $0x1,%eax
 804ab75:	89 45 dc             	mov    %eax,-0x24(%ebp)
 804ab78:	8b 45 e0             	mov    -0x20(%ebp),%eax
 804ab7b:	3b 45 dc             	cmp    -0x24(%ebp),%eax
 804ab7e:	73 08                	jae    804ab88 <GAThread::binary_xover(unsigned int*, float*, unsigned int*, float*, unsigned int*, float*, unsigned int*, float*)+0xd0>
 804ab80:	8b 45 e0             	mov    -0x20(%ebp),%eax
 804ab83:	89 45 c8             	mov    %eax,-0x38(%ebp)
 804ab86:	eb 06                	jmp    804ab8e <GAThread::binary_xover(unsigned int*, float*, unsigned int*, float*, unsigned int*, float*, unsigned int*, float*)+0xd6>
 804ab88:	8b 4d dc             	mov    -0x24(%ebp),%ecx
 804ab8b:	89 4d c8             	mov    %ecx,-0x38(%ebp)
 804ab8e:	8b 45 c8             	mov    -0x38(%ebp),%eax
 804ab91:	89 45 d8             	mov    %eax,-0x28(%ebp)
 804ab94:	8b 55 d8             	mov    -0x28(%ebp),%edx
 804ab97:	89 d0                	mov    %edx,%eax
 804ab99:	c1 e0 02             	shl    $0x2,%eax
 804ab9c:	01 d0                	add    %edx,%eax
 804ab9e:	8d 14 85 00 00 00 00 	lea    0x0(,%eax,4),%edx
 804aba5:	01 d0                	add    %edx,%eax
 804aba7:	83 c0 04             	add    $0x4,%eax
 804abaa:	89 44 24 08          	mov    %eax,0x8(%esp)
 804abae:	c7 44 24 04 01 00 00 	movl   $0x1,0x4(%esp)
 804abb5:	00 
 804abb6:	8b 45 08             	mov    0x8(%ebp),%eax
 804abb9:	89 04 24             	mov    %eax,(%esp)
 804abbc:	e8 17 25 00 00       	call   804d0d8 <GAThread::rnd(int, int)>
 804abc1:	89 45 f4             	mov    %eax,-0xc(%ebp)
 804abc4:	8b 4d f4             	mov    -0xc(%ebp),%ecx
 804abc7:	83 e9 04             	sub    $0x4,%ecx
 804abca:	c7 45 c4 1f 85 eb 51 	movl   $0x51eb851f,-0x3c(%ebp)
 804abd1:	8b 45 c4             	mov    -0x3c(%ebp),%eax
 804abd4:	f7 e9                	imul   %ecx
 804abd6:	c1 fa 03             	sar    $0x3,%edx
 804abd9:	89 c8                	mov    %ecx,%eax
 804abdb:	c1 f8 1f             	sar    $0x1f,%eax
 804abde:	89 d1                	mov    %edx,%ecx
 804abe0:	29 c1                	sub    %eax,%ecx
 804abe2:	89 c8                	mov    %ecx,%eax
 804abe4:	89 45 ec             	mov    %eax,-0x14(%ebp)
 804abe7:	8b 45 ec             	mov    -0x14(%ebp),%eax
 804abea:	89 45 f0             	mov    %eax,-0x10(%ebp)
 804abed:	eb 34                	jmp    804ac23 <GAThread::binary_xover(unsigned int*, float*, unsigned int*, float*, unsigned int*, float*, unsigned int*, float*)+0x16b>
 804abef:	8b 45 f0             	mov    -0x10(%ebp),%eax
 804abf2:	c1 e0 02             	shl    $0x2,%eax
 804abf5:	89 c2                	mov    %eax,%edx
 804abf7:	03 55 28             	add    0x28(%ebp),%edx
 804abfa:	8b 45 f0             	mov    -0x10(%ebp),%eax
 804abfd:	c1 e0 02             	shl    $0x2,%eax
 804ac00:	03 45 10             	add    0x10(%ebp),%eax
 804ac03:	8b 00                	mov    (%eax),%eax
 804ac05:	89 02                	mov    %eax,(%edx)
 804ac07:	8b 45 f0             	mov    -0x10(%ebp),%eax
 804ac0a:	c1 e0 02             	shl    $0x2,%eax
 804ac0d:	89 c2                	mov    %eax,%edx
 804ac0f:	03 55 20             	add    0x20(%ebp),%edx
 804ac12:	8b 45 f0             	mov    -0x10(%ebp),%eax
 804ac15:	c1 e0 02             	shl    $0x2,%eax
 804ac18:	03 45 18             	add    0x18(%ebp),%eax
 804ac1b:	8b 00                	mov    (%eax),%eax
 804ac1d:	89 02                	mov    %eax,(%edx)
 804ac1f:	83 45 f0 01          	addl   $0x1,-0x10(%ebp)
 804ac23:	83 7d f0 07          	cmpl   $0x7,-0x10(%ebp)
 804ac27:	7e c6                	jle    804abef <GAThread::binary_xover(unsigned int*, float*, unsigned int*, float*, unsigned int*, float*, unsigned int*, float*)+0x137>
 804ac29:	c7 45 f0 00 00 00 00 	movl   $0x0,-0x10(%ebp)
 804ac30:	eb 34                	jmp    804ac66 <GAThread::binary_xover(unsigned int*, float*, unsigned int*, float*, unsigned int*, float*, unsigned int*, float*)+0x1ae>
 804ac32:	8b 45 f0             	mov    -0x10(%ebp),%eax
 804ac35:	c1 e0 02             	shl    $0x2,%eax
 804ac38:	89 c2                	mov    %eax,%edx
 804ac3a:	03 55 28             	add    0x28(%ebp),%edx
 804ac3d:	8b 45 f0             	mov    -0x10(%ebp),%eax
 804ac40:	c1 e0 02             	shl    $0x2,%eax
 804ac43:	03 45 18             	add    0x18(%ebp),%eax
 804ac46:	8b 00                	mov    (%eax),%eax
 804ac48:	89 02                	mov    %eax,(%edx)
 804ac4a:	8b 45 f0             	mov    -0x10(%ebp),%eax
 804ac4d:	c1 e0 02             	shl    $0x2,%eax
 804ac50:	89 c2                	mov    %eax,%edx
 804ac52:	03 55 20             	add    0x20(%ebp),%edx
 804ac55:	8b 45 f0             	mov    -0x10(%ebp),%eax
 804ac58:	c1 e0 02             	shl    $0x2,%eax
 804ac5b:	03 45 10             	add    0x10(%ebp),%eax
 804ac5e:	8b 00                	mov    (%eax),%eax
 804ac60:	89 02                	mov    %eax,(%edx)
 804ac62:	83 45 f0 01          	addl   $0x1,-0x10(%ebp)
 804ac66:	8b 45 f0             	mov    -0x10(%ebp),%eax
 804ac69:	3b 45 ec             	cmp    -0x14(%ebp),%eax
 804ac6c:	7c c4                	jl     804ac32 <GAThread::binary_xover(unsigned int*, float*, unsigned int*, float*, unsigned int*, float*, unsigned int*, float*)+0x17a>
 804ac6e:	8b 45 ec             	mov    -0x14(%ebp),%eax
 804ac71:	29 45 f4             	sub    %eax,-0xc(%ebp)
 804ac74:	c7 45 f0 01 00 00 00 	movl   $0x1,-0x10(%ebp)
 804ac7b:	e9 59 01 00 00       	jmp    804add9 <GAThread::binary_xover(unsigned int*, float*, unsigned int*, float*, unsigned int*, float*, unsigned int*, float*)+0x321>
 804ac80:	8b 45 f4             	mov    -0xc(%ebp),%eax
 804ac83:	8b 55 f0             	mov    -0x10(%ebp),%edx
 804ac86:	c1 e2 05             	shl    $0x5,%edx
 804ac89:	39 d0                	cmp    %edx,%eax
 804ac8b:	72 3d                	jb     804acca <GAThread::binary_xover(unsigned int*, float*, unsigned int*, float*, unsigned int*, float*, unsigned int*, float*)+0x212>
 804ac8d:	8b 45 f0             	mov    -0x10(%ebp),%eax
 804ac90:	c1 e0 02             	shl    $0x2,%eax
 804ac93:	03 45 1c             	add    0x1c(%ebp),%eax
 804ac96:	8d 50 fc             	lea    -0x4(%eax),%edx
 804ac99:	8b 45 f0             	mov    -0x10(%ebp),%eax
 804ac9c:	c1 e0 02             	shl    $0x2,%eax
 804ac9f:	03 45 0c             	add    0xc(%ebp),%eax
 804aca2:	83 e8 04             	sub    $0x4,%eax
 804aca5:	8b 00                	mov    (%eax),%eax
 804aca7:	89 02                	mov    %eax,(%edx)
 804aca9:	8b 45 f0             	mov    -0x10(%ebp),%eax
 804acac:	c1 e0 02             	shl    $0x2,%eax
 804acaf:	03 45 24             	add    0x24(%ebp),%eax
 804acb2:	8d 50 fc             	lea    -0x4(%eax),%edx
 804acb5:	8b 45 f0             	mov    -0x10(%ebp),%eax
 804acb8:	c1 e0 02             	shl    $0x2,%eax
 804acbb:	03 45 14             	add    0x14(%ebp),%eax
 804acbe:	83 e8 04             	sub    $0x4,%eax
 804acc1:	8b 00                	mov    (%eax),%eax
 804acc3:	89 02                	mov    %eax,(%edx)
 804acc5:	e9 0b 01 00 00       	jmp    804add5 <GAThread::binary_xover(unsigned int*, float*, unsigned int*, float*, unsigned int*, float*, unsigned int*, float*)+0x31d>
 804acca:	8b 45 f4             	mov    -0xc(%ebp),%eax
 804accd:	8b 55 f0             	mov    -0x10(%ebp),%edx
 804acd0:	c1 e2 05             	shl    $0x5,%edx
 804acd3:	39 d0                	cmp    %edx,%eax
 804acd5:	0f 83 c2 00 00 00    	jae    804ad9d <GAThread::binary_xover(unsigned int*, float*, unsigned int*, float*, unsigned int*, float*, unsigned int*, float*)+0x2e5>
 804acdb:	8b 55 f4             	mov    -0xc(%ebp),%edx
 804acde:	8b 45 f0             	mov    -0x10(%ebp),%eax
 804ace1:	c1 e0 05             	shl    $0x5,%eax
 804ace4:	83 e8 20             	sub    $0x20,%eax
 804ace7:	39 c2                	cmp    %eax,%edx
 804ace9:	0f 86 ae 00 00 00    	jbe    804ad9d <GAThread::binary_xover(unsigned int*, float*, unsigned int*, float*, unsigned int*, float*, unsigned int*, float*)+0x2e5>
 804acef:	c7 45 e8 01 00 00 00 	movl   $0x1,-0x18(%ebp)
 804acf6:	c7 45 f8 01 00 00 00 	movl   $0x1,-0x8(%ebp)
 804acfd:	eb 14                	jmp    804ad13 <GAThread::binary_xover(unsigned int*, float*, unsigned int*, float*, unsigned int*, float*, unsigned int*, float*)+0x25b>
 804acff:	c7 45 e4 01 00 00 00 	movl   $0x1,-0x1c(%ebp)
 804ad06:	d1 65 e8             	shll   -0x18(%ebp)
 804ad09:	8b 45 e4             	mov    -0x1c(%ebp),%eax
 804ad0c:	09 45 e8             	or     %eax,-0x18(%ebp)
 804ad0f:	83 45 f8 01          	addl   $0x1,-0x8(%ebp)
 804ad13:	8b 4d f8             	mov    -0x8(%ebp),%ecx
 804ad16:	8b 45 f0             	mov    -0x10(%ebp),%eax
 804ad19:	c1 e0 05             	shl    $0x5,%eax
 804ad1c:	f7 d8                	neg    %eax
 804ad1e:	89 c2                	mov    %eax,%edx
 804ad20:	8b 45 f4             	mov    -0xc(%ebp),%eax
 804ad23:	8d 04 02             	lea    (%edx,%eax,1),%eax
 804ad26:	83 c0 1f             	add    $0x1f,%eax
 804ad29:	39 c1                	cmp    %eax,%ecx
 804ad2b:	76 d2                	jbe    804acff <GAThread::binary_xover(unsigned int*, float*, unsigned int*, float*, unsigned int*, float*, unsigned int*, float*)+0x247>
 804ad2d:	8b 45 f0             	mov    -0x10(%ebp),%eax
 804ad30:	c1 e0 02             	shl    $0x2,%eax
 804ad33:	03 45 1c             	add    0x1c(%ebp),%eax
 804ad36:	8d 58 fc             	lea    -0x4(%eax),%ebx
 804ad39:	8b 45 f0             	mov    -0x10(%ebp),%eax
 804ad3c:	c1 e0 02             	shl    $0x2,%eax
 804ad3f:	03 45 0c             	add    0xc(%ebp),%eax
 804ad42:	83 e8 04             	sub    $0x4,%eax
 804ad45:	8b 00                	mov    (%eax),%eax
 804ad47:	89 c1                	mov    %eax,%ecx
 804ad49:	23 4d e8             	and    -0x18(%ebp),%ecx
 804ad4c:	8b 45 f0             	mov    -0x10(%ebp),%eax
 804ad4f:	c1 e0 02             	shl    $0x2,%eax
 804ad52:	03 45 14             	add    0x14(%ebp),%eax
 804ad55:	83 e8 04             	sub    $0x4,%eax
 804ad58:	8b 10                	mov    (%eax),%edx
 804ad5a:	8b 45 e8             	mov    -0x18(%ebp),%eax
 804ad5d:	f7 d0                	not    %eax
 804ad5f:	21 d0                	and    %edx,%eax
 804ad61:	09 c8                	or     %ecx,%eax
 804ad63:	89 03                	mov    %eax,(%ebx)
 804ad65:	8b 45 f0             	mov    -0x10(%ebp),%eax
 804ad68:	c1 e0 02             	shl    $0x2,%eax
 804ad6b:	03 45 24             	add    0x24(%ebp),%eax
 804ad6e:	8d 48 fc             	lea    -0x4(%eax),%ecx
 804ad71:	8b 45 f0             	mov    -0x10(%ebp),%eax
 804ad74:	c1 e0 02             	shl    $0x2,%eax
 804ad77:	03 45 0c             	add    0xc(%ebp),%eax
 804ad7a:	83 e8 04             	sub    $0x4,%eax
 804ad7d:	8b 10                	mov    (%eax),%edx
 804ad7f:	8b 45 e8             	mov    -0x18(%ebp),%eax
 804ad82:	f7 d0                	not    %eax
 804ad84:	21 c2                	and    %eax,%edx
 804ad86:	8b 45 f0             	mov    -0x10(%ebp),%eax
 804ad89:	c1 e0 02             	shl    $0x2,%eax
 804ad8c:	03 45 14             	add    0x14(%ebp),%eax
 804ad8f:	83 e8 04             	sub    $0x4,%eax
 804ad92:	8b 00                	mov    (%eax),%eax
 804ad94:	23 45 e8             	and    -0x18(%ebp),%eax
 804ad97:	09 d0                	or     %edx,%eax
 804ad99:	89 01                	mov    %eax,(%ecx)
 804ad9b:	eb 38                	jmp    804add5 <GAThread::binary_xover(unsigned int*, float*, unsigned int*, float*, unsigned int*, float*, unsigned int*, float*)+0x31d>
 804ad9d:	8b 45 f0             	mov    -0x10(%ebp),%eax
 804ada0:	c1 e0 02             	shl    $0x2,%eax
 804ada3:	03 45 1c             	add    0x1c(%ebp),%eax
 804ada6:	8d 50 fc             	lea    -0x4(%eax),%edx
 804ada9:	8b 45 f0             	mov    -0x10(%ebp),%eax
 804adac:	c1 e0 02             	shl    $0x2,%eax
 804adaf:	03 45 14             	add    0x14(%ebp),%eax
 804adb2:	83 e8 04             	sub    $0x4,%eax
 804adb5:	8b 00                	mov    (%eax),%eax
 804adb7:	89 02                	mov    %eax,(%edx)
 804adb9:	8b 45 f0             	mov    -0x10(%ebp),%eax
 804adbc:	c1 e0 02             	shl    $0x2,%eax
 804adbf:	03 45 24             	add    0x24(%ebp),%eax
 804adc2:	8d 50 fc             	lea    -0x4(%eax),%edx
 804adc5:	8b 45 f0             	mov    -0x10(%ebp),%eax
 804adc8:	c1 e0 02             	shl    $0x2,%eax
 804adcb:	03 45 0c             	add    0xc(%ebp),%eax
 804adce:	83 e8 04             	sub    $0x4,%eax
 804add1:	8b 00                	mov    (%eax),%eax
 804add3:	89 02                	mov    %eax,(%edx)
 804add5:	83 45 f0 01          	addl   $0x1,-0x10(%ebp)
 804add9:	8b 45 08             	mov    0x8(%ebp),%eax
 804addc:	8b 40 24             	mov    0x24(%eax),%eax
 804addf:	3b 45 f0             	cmp    -0x10(%ebp),%eax
 804ade2:	0f 8d 98 fe ff ff    	jge    804ac80 <GAThread::binary_xover(unsigned int*, float*, unsigned int*, float*, unsigned int*, float*, unsigned int*, float*)+0x1c8>
 804ade8:	83 c4 44             	add    $0x44,%esp
 804adeb:	5b                   	pop    %ebx
 804adec:	5d                   	pop    %ebp
 804aded:	c3                   	ret    

0804adee <GAThread::reset1()>:
 804adee:	55                   	push   %ebp
 804adef:	89 e5                	mov    %esp,%ebp
 804adf1:	83 ec 28             	sub    $0x28,%esp
 804adf4:	c7 45 fc 00 00 00 00 	movl   $0x0,-0x4(%ebp)
 804adfb:	eb 11                	jmp    804ae0e <GAThread::reset1()+0x20>
 804adfd:	8b 4d fc             	mov    -0x4(%ebp),%ecx
 804ae00:	8b 55 08             	mov    0x8(%ebp),%edx
 804ae03:	8b 45 fc             	mov    -0x4(%ebp),%eax
 804ae06:	89 44 8a 54          	mov    %eax,0x54(%edx,%ecx,4)
 804ae0a:	83 45 fc 01          	addl   $0x1,-0x4(%ebp)
 804ae0e:	8b 45 08             	mov    0x8(%ebp),%eax
 804ae11:	8b 00                	mov    (%eax),%eax
 804ae13:	3b 45 fc             	cmp    -0x4(%ebp),%eax
 804ae16:	7f e5                	jg     804adfd <GAThread::reset1()+0xf>
 804ae18:	c7 45 fc 00 00 00 00 	movl   $0x0,-0x4(%ebp)
 804ae1f:	eb 76                	jmp    804ae97 <GAThread::reset1()+0xa9>
 804ae21:	8b 45 08             	mov    0x8(%ebp),%eax
 804ae24:	8b 00                	mov    (%eax),%eax
 804ae26:	83 e8 01             	sub    $0x1,%eax
 804ae29:	89 44 24 08          	mov    %eax,0x8(%esp)
 804ae2d:	c7 44 24 04 00 00 00 	movl   $0x0,0x4(%esp)
 804ae34:	00 
 804ae35:	8b 45 08             	mov    0x8(%ebp),%eax
 804ae38:	89 04 24             	mov    %eax,(%esp)
 804ae3b:	e8 98 22 00 00       	call   804d0d8 <GAThread::rnd(int, int)>
 804ae40:	89 45 f8             	mov    %eax,-0x8(%ebp)
 804ae43:	8b 45 08             	mov    0x8(%ebp),%eax
 804ae46:	8b 00                	mov    (%eax),%eax
 804ae48:	83 e8 01             	sub    $0x1,%eax
 804ae4b:	89 44 24 08          	mov    %eax,0x8(%esp)
 804ae4f:	c7 44 24 04 00 00 00 	movl   $0x0,0x4(%esp)
 804ae56:	00 
 804ae57:	8b 45 08             	mov    0x8(%ebp),%eax
 804ae5a:	89 04 24             	mov    %eax,(%esp)
 804ae5d:	e8 76 22 00 00       	call   804d0d8 <GAThread::rnd(int, int)>
 804ae62:	89 45 f4             	mov    %eax,-0xc(%ebp)
 804ae65:	8b 55 f8             	mov    -0x8(%ebp),%edx
 804ae68:	8b 45 08             	mov    0x8(%ebp),%eax
 804ae6b:	8b 44 90 54          	mov    0x54(%eax,%edx,4),%eax
 804ae6f:	89 45 f0             	mov    %eax,-0x10(%ebp)
 804ae72:	8b 4d f8             	mov    -0x8(%ebp),%ecx
 804ae75:	8b 55 f4             	mov    -0xc(%ebp),%edx
 804ae78:	8b 45 08             	mov    0x8(%ebp),%eax
 804ae7b:	8b 54 90 54          	mov    0x54(%eax,%edx,4),%edx
 804ae7f:	8b 45 08             	mov    0x8(%ebp),%eax
 804ae82:	89 54 88 54          	mov    %edx,0x54(%eax,%ecx,4)
 804ae86:	8b 4d f4             	mov    -0xc(%ebp),%ecx
 804ae89:	8b 55 08             	mov    0x8(%ebp),%edx
 804ae8c:	8b 45 f0             	mov    -0x10(%ebp),%eax
 804ae8f:	89 44 8a 54          	mov    %eax,0x54(%edx,%ecx,4)
 804ae93:	83 45 fc 01          	addl   $0x1,-0x4(%ebp)
 804ae97:	8b 45 08             	mov    0x8(%ebp),%eax
 804ae9a:	8b 00                	mov    (%eax),%eax
 804ae9c:	3b 45 fc             	cmp    -0x4(%ebp),%eax
 804ae9f:	7f 80                	jg     804ae21 <GAThread::reset1()+0x33>
 804aea1:	c9                   	leave  
 804aea2:	c3                   	ret    
 804aea3:	90                   	nop    

0804aea4 <GAThread::preselect_tour()>:
 804aea4:	55                   	push   %ebp
 804aea5:	89 e5                	mov    %esp,%ebp
 804aea7:	83 ec 08             	sub    $0x8,%esp
 804aeaa:	8b 45 08             	mov    0x8(%ebp),%eax
 804aead:	89 04 24             	mov    %eax,(%esp)
 804aeb0:	e8 39 ff ff ff       	call   804adee <GAThread::reset1()>
 804aeb5:	8b 45 08             	mov    0x8(%ebp),%eax
 804aeb8:	c7 80 f4 0f 00 00 00 	movl   $0x0,0xff4(%eax)
 804aebf:	00 00 00 
 804aec2:	c9                   	leave  
 804aec3:	c3                   	ret    

0804aec4 <GAThread::tour_select()>:
 804aec4:	55                   	push   %ebp
 804aec5:	89 e5                	mov    %esp,%ebp
 804aec7:	83 ec 18             	sub    $0x18,%esp
 804aeca:	8b 45 08             	mov    0x8(%ebp),%eax
 804aecd:	8b 10                	mov    (%eax),%edx
 804aecf:	8b 45 08             	mov    0x8(%ebp),%eax
 804aed2:	8b 80 f4 0f 00 00    	mov    0xff4(%eax),%eax
 804aed8:	29 c2                	sub    %eax,%edx
 804aeda:	8b 45 08             	mov    0x8(%ebp),%eax
 804aedd:	8b 80 f8 0f 00 00    	mov    0xff8(%eax),%eax
 804aee3:	39 c2                	cmp    %eax,%edx
 804aee5:	7d 18                	jge    804aeff <GAThread::tour_select()+0x3b>
 804aee7:	8b 45 08             	mov    0x8(%ebp),%eax
 804aeea:	89 04 24             	mov    %eax,(%esp)
 804aeed:	e8 fc fe ff ff       	call   804adee <GAThread::reset1()>
 804aef2:	8b 45 08             	mov    0x8(%ebp),%eax
 804aef5:	c7 80 f4 0f 00 00 00 	movl   $0x0,0xff4(%eax)
 804aefc:	00 00 00 
 804aeff:	8b 45 08             	mov    0x8(%ebp),%eax
 804af02:	8b 90 f4 0f 00 00    	mov    0xff4(%eax),%edx
 804af08:	8b 45 08             	mov    0x8(%ebp),%eax
 804af0b:	8b 44 90 54          	mov    0x54(%eax,%edx,4),%eax
 804af0f:	89 45 f8             	mov    %eax,-0x8(%ebp)
 804af12:	83 7d f8 00          	cmpl   $0x0,-0x8(%ebp)
 804af16:	78 0d                	js     804af25 <GAThread::tour_select()+0x61>
 804af18:	8b 45 08             	mov    0x8(%ebp),%eax
 804af1b:	8b 00                	mov    (%eax),%eax
 804af1d:	83 e8 01             	sub    $0x1,%eax
 804af20:	3b 45 f8             	cmp    -0x8(%ebp),%eax
 804af23:	7d 48                	jge    804af6d <GAThread::tour_select()+0xa9>
 804af25:	c7 04 24 5a ee 04 08 	movl   $0x804ee5a,(%esp)
 804af2c:	e8 3f de ff ff       	call   8048d70 <printf@plt>
 804af31:	8b 45 08             	mov    0x8(%ebp),%eax
 804af34:	8b 80 f4 0f 00 00    	mov    0xff4(%eax),%eax
 804af3a:	89 44 24 04          	mov    %eax,0x4(%esp)
 804af3e:	c7 04 24 6e ee 04 08 	movl   $0x804ee6e,(%esp)
 804af45:	e8 26 de ff ff       	call   8048d70 <printf@plt>
 804af4a:	8b 45 f8             	mov    -0x8(%ebp),%eax
 804af4d:	89 44 24 04          	mov    %eax,0x4(%esp)
 804af51:	c7 04 24 7c ee 04 08 	movl   $0x804ee7c,(%esp)
 804af58:	e8 13 de ff ff       	call   8048d70 <printf@plt>
 804af5d:	8b 45 08             	mov    0x8(%ebp),%eax
 804af60:	89 04 24             	mov    %eax,(%esp)
 804af63:	e8 3c ff ff ff       	call   804aea4 <GAThread::preselect_tour()>
 804af68:	e9 5d ff ff ff       	jmp    804aeca <GAThread::tour_select()+0x6>
 804af6d:	c7 45 f4 01 00 00 00 	movl   $0x1,-0xc(%ebp)
 804af74:	e9 b0 00 00 00       	jmp    804b029 <GAThread::tour_select()+0x165>
 804af79:	8b 45 08             	mov    0x8(%ebp),%eax
 804af7c:	8b 80 f4 0f 00 00    	mov    0xff4(%eax),%eax
 804af82:	89 c2                	mov    %eax,%edx
 804af84:	03 55 f4             	add    -0xc(%ebp),%edx
 804af87:	8b 45 08             	mov    0x8(%ebp),%eax
 804af8a:	8b 44 90 54          	mov    0x54(%eax,%edx,4),%eax
 804af8e:	89 45 fc             	mov    %eax,-0x4(%ebp)
 804af91:	83 7d fc 00          	cmpl   $0x0,-0x4(%ebp)
 804af95:	78 0d                	js     804afa4 <GAThread::tour_select()+0xe0>
 804af97:	8b 45 08             	mov    0x8(%ebp),%eax
 804af9a:	8b 00                	mov    (%eax),%eax
 804af9c:	83 e8 01             	sub    $0x1,%eax
 804af9f:	3b 45 fc             	cmp    -0x4(%ebp),%eax
 804afa2:	7d 1c                	jge    804afc0 <GAThread::tour_select()+0xfc>
 804afa4:	8b 45 08             	mov    0x8(%ebp),%eax
 804afa7:	89 04 24             	mov    %eax,(%esp)
 804afaa:	e8 f5 fe ff ff       	call   804aea4 <GAThread::preselect_tour()>
 804afaf:	c7 04 24 89 ee 04 08 	movl   $0x804ee89,(%esp)
 804afb6:	e8 b5 dd ff ff       	call   8048d70 <printf@plt>
 804afbb:	e9 0a ff ff ff       	jmp    804aeca <GAThread::tour_select()+0x6>
 804afc0:	8b 45 08             	mov    0x8(%ebp),%eax
 804afc3:	8b 80 fc 0f 00 00    	mov    0xffc(%eax),%eax
 804afc9:	50                   	push   %eax
 804afca:	db 04 24             	fildl  (%esp)
 804afcd:	8d 64 24 04          	lea    0x4(%esp),%esp
 804afd1:	8b 45 08             	mov    0x8(%ebp),%eax
 804afd4:	8b 90 0c 12 00 00    	mov    0x120c(%eax),%edx
 804afda:	8b 45 fc             	mov    -0x4(%ebp),%eax
 804afdd:	69 c0 94 00 00 00    	imul   $0x94,%eax,%eax
 804afe3:	8d 04 02             	lea    (%edx,%eax,1),%eax
 804afe6:	d9 40 7c             	flds   0x7c(%eax)
 804afe9:	de c9                	fmulp  %st,%st(1)
 804afeb:	8b 45 08             	mov    0x8(%ebp),%eax
 804afee:	8b 80 fc 0f 00 00    	mov    0xffc(%eax),%eax
 804aff4:	50                   	push   %eax
 804aff5:	db 04 24             	fildl  (%esp)
 804aff8:	8d 64 24 04          	lea    0x4(%esp),%esp
 804affc:	8b 45 08             	mov    0x8(%ebp),%eax
 804afff:	8b 90 0c 12 00 00    	mov    0x120c(%eax),%edx
 804b005:	8b 45 f8             	mov    -0x8(%ebp),%eax
 804b008:	69 c0 94 00 00 00    	imul   $0x94,%eax,%eax
 804b00e:	8d 04 02             	lea    (%edx,%eax,1),%eax
 804b011:	d9 40 7c             	flds   0x7c(%eax)
 804b014:	de c9                	fmulp  %st,%st(1)
 804b016:	da e9                	fucompp 
 804b018:	df e0                	fnstsw %ax
 804b01a:	9e                   	sahf   
 804b01b:	77 02                	ja     804b01f <GAThread::tour_select()+0x15b>
 804b01d:	eb 06                	jmp    804b025 <GAThread::tour_select()+0x161>
 804b01f:	8b 45 fc             	mov    -0x4(%ebp),%eax
 804b022:	89 45 f8             	mov    %eax,-0x8(%ebp)
 804b025:	83 45 f4 01          	addl   $0x1,-0xc(%ebp)
 804b029:	8b 45 08             	mov    0x8(%ebp),%eax
 804b02c:	8b 80 f8 0f 00 00    	mov    0xff8(%eax),%eax
 804b032:	3b 45 f4             	cmp    -0xc(%ebp),%eax
 804b035:	0f 8f 3e ff ff ff    	jg     804af79 <GAThread::tour_select()+0xb5>
 804b03b:	8b 45 08             	mov    0x8(%ebp),%eax
 804b03e:	8b 90 f4 0f 00 00    	mov    0xff4(%eax),%edx
 804b044:	8b 45 08             	mov    0x8(%ebp),%eax
 804b047:	8b 80 f8 0f 00 00    	mov    0xff8(%eax),%eax
 804b04d:	01 c2                	add    %eax,%edx
 804b04f:	8b 45 08             	mov    0x8(%ebp),%eax
 804b052:	89 90 f4 0f 00 00    	mov    %edx,0xff4(%eax)
 804b058:	8b 45 f8             	mov    -0x8(%ebp),%eax
 804b05b:	c9                   	leave  
 804b05c:	c3                   	ret    
 804b05d:	90                   	nop    

0804b05e <GAThread::binmutation(indiv*)>:
 804b05e:	55                   	push   %ebp
 804b05f:	89 e5                	mov    %esp,%ebp
 804b061:	53                   	push   %ebx
 804b062:	83 ec 34             	sub    $0x34,%esp
 804b065:	c7 45 e8 01 00 00 00 	movl   $0x1,-0x18(%ebp)
 804b06c:	8b 45 0c             	mov    0xc(%ebp),%eax
 804b06f:	8b 80 80 00 00 00    	mov    0x80(%eax),%eax
 804b075:	89 45 e4             	mov    %eax,-0x1c(%ebp)
 804b078:	8b 45 08             	mov    0x8(%ebp),%eax
 804b07b:	8b 40 48             	mov    0x48(%eax),%eax
 804b07e:	85 c0                	test   %eax,%eax
 804b080:	0f 84 45 01 00 00    	je     804b1cb <GAThread::binmutation(indiv*)+0x16d>
 804b086:	83 7d e4 00          	cmpl   $0x0,-0x1c(%ebp)
 804b08a:	75 0c                	jne    804b098 <GAThread::binmutation(indiv*)+0x3a>
 804b08c:	c7 04 24 9d ee 04 08 	movl   $0x804ee9d,(%esp)
 804b093:	e8 34 e5 ff ff       	call   80495cc <error_ptr_null(char const*)>
 804b098:	c7 45 f4 00 00 00 00 	movl   $0x0,-0xc(%ebp)
 804b09f:	e9 a6 00 00 00       	jmp    804b14a <GAThread::binmutation(indiv*)+0xec>
 804b0a4:	c7 45 ec 00 00 00 00 	movl   $0x0,-0x14(%ebp)
 804b0ab:	8b 45 08             	mov    0x8(%ebp),%eax
 804b0ae:	8b 40 24             	mov    0x24(%eax),%eax
 804b0b1:	83 e8 01             	sub    $0x1,%eax
 804b0b4:	3b 45 f4             	cmp    -0xc(%ebp),%eax
 804b0b7:	75 1b                	jne    804b0d4 <GAThread::binmutation(indiv*)+0x76>
 804b0b9:	8b 45 08             	mov    0x8(%ebp),%eax
 804b0bc:	8b 40 20             	mov    0x20(%eax),%eax
 804b0bf:	89 c2                	mov    %eax,%edx
 804b0c1:	8b 45 f4             	mov    -0xc(%ebp),%eax
 804b0c4:	c1 e0 05             	shl    $0x5,%eax
 804b0c7:	f7 d8                	neg    %eax
 804b0c9:	8d 04 02             	lea    (%edx,%eax,1),%eax
 804b0cc:	83 c0 20             	add    $0x20,%eax
 804b0cf:	89 45 f0             	mov    %eax,-0x10(%ebp)
 804b0d2:	eb 07                	jmp    804b0db <GAThread::binmutation(indiv*)+0x7d>
 804b0d4:	c7 45 f0 20 00 00 00 	movl   $0x20,-0x10(%ebp)
 804b0db:	c7 45 f8 00 00 00 00 	movl   $0x0,-0x8(%ebp)
 804b0e2:	eb 3f                	jmp    804b123 <GAThread::binmutation(indiv*)+0xc5>
 804b0e4:	8b 45 08             	mov    0x8(%ebp),%eax
 804b0e7:	8b 80 14 10 00 00    	mov    0x1014(%eax),%eax
 804b0ed:	89 44 24 04          	mov    %eax,0x4(%esp)
 804b0f1:	8b 45 08             	mov    0x8(%ebp),%eax
 804b0f4:	89 04 24             	mov    %eax,(%esp)
 804b0f7:	e8 a4 1f 00 00       	call   804d0a0 <GAThread::flip(float)>
 804b0fc:	85 c0                	test   %eax,%eax
 804b0fe:	0f 95 c0             	setne  %al
 804b101:	84 c0                	test   %al,%al
 804b103:	74 1a                	je     804b11f <GAThread::binmutation(indiv*)+0xc1>
 804b105:	8b 4d f8             	mov    -0x8(%ebp),%ecx
 804b108:	8b 45 e8             	mov    -0x18(%ebp),%eax
 804b10b:	d3 e0                	shl    %cl,%eax
 804b10d:	09 45 ec             	or     %eax,-0x14(%ebp)
 804b110:	8b 45 08             	mov    0x8(%ebp),%eax
 804b113:	8b 40 10             	mov    0x10(%eax),%eax
 804b116:	8d 50 01             	lea    0x1(%eax),%edx
 804b119:	8b 45 08             	mov    0x8(%ebp),%eax
 804b11c:	89 50 10             	mov    %edx,0x10(%eax)
 804b11f:	83 45 f8 01          	addl   $0x1,-0x8(%ebp)
 804b123:	8b 45 f8             	mov    -0x8(%ebp),%eax
 804b126:	3b 45 f0             	cmp    -0x10(%ebp),%eax
 804b129:	7c b9                	jl     804b0e4 <GAThread::binmutation(indiv*)+0x86>
 804b12b:	8b 45 f4             	mov    -0xc(%ebp),%eax
 804b12e:	c1 e0 02             	shl    $0x2,%eax
 804b131:	89 c2                	mov    %eax,%edx
 804b133:	03 55 e4             	add    -0x1c(%ebp),%edx
 804b136:	8b 45 f4             	mov    -0xc(%ebp),%eax
 804b139:	c1 e0 02             	shl    $0x2,%eax
 804b13c:	03 45 e4             	add    -0x1c(%ebp),%eax
 804b13f:	8b 00                	mov    (%eax),%eax
 804b141:	33 45 ec             	xor    -0x14(%ebp),%eax
 804b144:	89 02                	mov    %eax,(%edx)
 804b146:	83 45 f4 01          	addl   $0x1,-0xc(%ebp)
 804b14a:	8b 45 08             	mov    0x8(%ebp),%eax
 804b14d:	8b 40 24             	mov    0x24(%eax),%eax
 804b150:	3b 45 f4             	cmp    -0xc(%ebp),%eax
 804b153:	0f 8f 4b ff ff ff    	jg     804b0a4 <GAThread::binmutation(indiv*)+0x46>
 804b159:	c7 45 f4 00 00 00 00 	movl   $0x0,-0xc(%ebp)
 804b160:	eb 63                	jmp    804b1c5 <GAThread::binmutation(indiv*)+0x167>
 804b162:	8b 45 08             	mov    0x8(%ebp),%eax
 804b165:	8b 80 14 10 00 00    	mov    0x1014(%eax),%eax
 804b16b:	89 44 24 04          	mov    %eax,0x4(%esp)
 804b16f:	8b 45 08             	mov    0x8(%ebp),%eax
 804b172:	89 04 24             	mov    %eax,(%esp)
 804b175:	e8 26 1f 00 00       	call   804d0a0 <GAThread::flip(float)>
 804b17a:	85 c0                	test   %eax,%eax
 804b17c:	0f 95 c0             	setne  %al
 804b17f:	84 c0                	test   %al,%al
 804b181:	74 3e                	je     804b1c1 <GAThread::binmutation(indiv*)+0x163>
 804b183:	8b 45 0c             	mov    0xc(%ebp),%eax
 804b186:	8b 90 84 00 00 00    	mov    0x84(%eax),%edx
 804b18c:	8b 45 f4             	mov    -0xc(%ebp),%eax
 804b18f:	c1 e0 02             	shl    $0x2,%eax
 804b192:	8d 1c 02             	lea    (%edx,%eax,1),%ebx
 804b195:	e8 c6 dc ff ff       	call   8048e60 <rand@plt>
 804b19a:	50                   	push   %eax
 804b19b:	db 04 24             	fildl  (%esp)
 804b19e:	8d 64 24 04          	lea    0x4(%esp),%esp
 804b1a2:	dd 05 98 f6 04 08    	fldl   0x804f698
 804b1a8:	de f9                	fdivrp %st,%st(1)
 804b1aa:	d9 5d d8             	fstps  -0x28(%ebp)
 804b1ad:	d9 45 d8             	flds   -0x28(%ebp)
 804b1b0:	d9 1b                	fstps  (%ebx)
 804b1b2:	8b 45 08             	mov    0x8(%ebp),%eax
 804b1b5:	8b 40 10             	mov    0x10(%eax),%eax
 804b1b8:	8d 50 01             	lea    0x1(%eax),%edx
 804b1bb:	8b 45 08             	mov    0x8(%ebp),%eax
 804b1be:	89 50 10             	mov    %edx,0x10(%eax)
 804b1c1:	83 45 f4 01          	addl   $0x1,-0xc(%ebp)
 804b1c5:	83 7d f4 07          	cmpl   $0x7,-0xc(%ebp)
 804b1c9:	7e 97                	jle    804b162 <GAThread::binmutation(indiv*)+0x104>
 804b1cb:	83 c4 34             	add    $0x34,%esp
 804b1ce:	5b                   	pop    %ebx
 804b1cf:	5d                   	pop    %ebp
 804b1d0:	c3                   	ret    
 804b1d1:	90                   	nop    

0804b1d2 <GAThread::mutation(indiv*)>:
 804b1d2:	55                   	push   %ebp
 804b1d3:	89 e5                	mov    %esp,%ebp
 804b1d5:	83 ec 48             	sub    $0x48,%esp
 804b1d8:	83 7d 0c 00          	cmpl   $0x0,0xc(%ebp)
 804b1dc:	75 0c                	jne    804b1ea <GAThread::mutation(indiv*)+0x18>
 804b1de:	c7 04 24 b3 ee 04 08 	movl   $0x804eeb3,(%esp)
 804b1e5:	e8 e2 e3 ff ff       	call   80495cc <error_ptr_null(char const*)>
 804b1ea:	8b 45 08             	mov    0x8(%ebp),%eax
 804b1ed:	8b 80 14 10 00 00    	mov    0x1014(%eax),%eax
 804b1f3:	89 44 24 04          	mov    %eax,0x4(%esp)
 804b1f7:	8b 45 08             	mov    0x8(%ebp),%eax
 804b1fa:	89 04 24             	mov    %eax,(%esp)
 804b1fd:	e8 9e 1e 00 00       	call   804d0a0 <GAThread::flip(float)>
 804b202:	85 c0                	test   %eax,%eax
 804b204:	74 10                	je     804b216 <GAThread::mutation(indiv*)+0x44>
 804b206:	8b 45 08             	mov    0x8(%ebp),%eax
 804b209:	8b 40 4c             	mov    0x4c(%eax),%eax
 804b20c:	85 c0                	test   %eax,%eax
 804b20e:	74 06                	je     804b216 <GAThread::mutation(indiv*)+0x44>
 804b210:	c6 45 cb 01          	movb   $0x1,-0x35(%ebp)
 804b214:	eb 04                	jmp    804b21a <GAThread::mutation(indiv*)+0x48>
 804b216:	c6 45 cb 00          	movb   $0x0,-0x35(%ebp)
 804b21a:	0f b6 45 cb          	movzbl -0x35(%ebp),%eax
 804b21e:	84 c0                	test   %al,%al
 804b220:	0f 84 10 02 00 00    	je     804b436 <GAThread::mutation(indiv*)+0x264>
 804b226:	8b 45 08             	mov    0x8(%ebp),%eax
 804b229:	8b 40 18             	mov    0x18(%eax),%eax
 804b22c:	83 e8 01             	sub    $0x1,%eax
 804b22f:	89 44 24 08          	mov    %eax,0x8(%esp)
 804b233:	c7 44 24 04 00 00 00 	movl   $0x0,0x4(%esp)
 804b23a:	00 
 804b23b:	8b 45 08             	mov    0x8(%ebp),%eax
 804b23e:	89 04 24             	mov    %eax,(%esp)
 804b241:	e8 92 1e 00 00       	call   804d0d8 <GAThread::rnd(int, int)>
 804b246:	89 45 dc             	mov    %eax,-0x24(%ebp)
 804b249:	8b 45 08             	mov    0x8(%ebp),%eax
 804b24c:	8b 40 10             	mov    0x10(%eax),%eax
 804b24f:	8d 50 01             	lea    0x1(%eax),%edx
 804b252:	8b 45 08             	mov    0x8(%ebp),%eax
 804b255:	89 50 10             	mov    %edx,0x10(%eax)
 804b258:	8b 55 dc             	mov    -0x24(%ebp),%edx
 804b25b:	8b 45 08             	mov    0x8(%ebp),%eax
 804b25e:	d9 84 90 90 11 00 00 	flds   0x1190(%eax,%edx,4)
 804b265:	8b 55 dc             	mov    -0x24(%ebp),%edx
 804b268:	8b 45 08             	mov    0x8(%ebp),%eax
 804b26b:	d9 84 90 18 11 00 00 	flds   0x1118(%eax,%edx,4)
 804b272:	de e9                	fsubrp %st,%st(1)
 804b274:	d9 1c 24             	fstps  (%esp)
 804b277:	e8 c2 1c 00 00       	call   804cf3e <std::fabs(float)>
 804b27c:	dd 05 78 f6 04 08    	fldl   0x804f678
 804b282:	da e9                	fucompp 
 804b284:	df e0                	fnstsw %ax
 804b286:	f6 c4 45             	test   $0x45,%ah
 804b289:	0f 94 c0             	sete   %al
 804b28c:	84 c0                	test   %al,%al
 804b28e:	0f 85 be 01 00 00    	jne    804b452 <GAThread::mutation(indiv*)+0x280>
 804b294:	8b 45 08             	mov    0x8(%ebp),%eax
 804b297:	8b 40 44             	mov    0x44(%eax),%eax
 804b29a:	85 c0                	test   %eax,%eax
 804b29c:	0f 84 24 01 00 00    	je     804b3c6 <GAThread::mutation(indiv*)+0x1f4>
 804b2a2:	8b 55 dc             	mov    -0x24(%ebp),%edx
 804b2a5:	8b 45 0c             	mov    0xc(%ebp),%eax
 804b2a8:	8b 04 90             	mov    (%eax,%edx,4),%eax
 804b2ab:	89 45 f4             	mov    %eax,-0xc(%ebp)
 804b2ae:	8b 55 dc             	mov    -0x24(%ebp),%edx
 804b2b1:	8b 45 08             	mov    0x8(%ebp),%eax
 804b2b4:	d9 84 90 18 11 00 00 	flds   0x1118(%eax,%edx,4)
 804b2bb:	d9 45 f4             	flds   -0xc(%ebp)
 804b2be:	de e1                	fsubp  %st,%st(1)
 804b2c0:	d9 5d fc             	fstps  -0x4(%ebp)
 804b2c3:	8b 55 dc             	mov    -0x24(%ebp),%edx
 804b2c6:	8b 45 08             	mov    0x8(%ebp),%eax
 804b2c9:	d9 84 90 90 11 00 00 	flds   0x1190(%eax,%edx,4)
 804b2d0:	d8 65 f4             	fsubs  -0xc(%ebp)
 804b2d3:	d9 5d f8             	fstps  -0x8(%ebp)
 804b2d6:	d9 45 fc             	flds   -0x4(%ebp)
 804b2d9:	d9 c0                	fld    %st(0)
 804b2db:	de c1                	faddp  %st,%st(1)
 804b2dd:	8b 55 dc             	mov    -0x24(%ebp),%edx
 804b2e0:	8b 45 08             	mov    0x8(%ebp),%eax
 804b2e3:	d9 84 90 90 11 00 00 	flds   0x1190(%eax,%edx,4)
 804b2ea:	8b 55 dc             	mov    -0x24(%ebp),%edx
 804b2ed:	8b 45 08             	mov    0x8(%ebp),%eax
 804b2f0:	d9 84 90 18 11 00 00 	flds   0x1118(%eax,%edx,4)
 804b2f7:	de e9                	fsubrp %st,%st(1)
 804b2f9:	de f9                	fdivrp %st,%st(1)
 804b2fb:	d9 5d f0             	fstps  -0x10(%ebp)
 804b2fe:	d9 45 f0             	flds   -0x10(%ebp)
 804b301:	d9 e8                	fld1   
 804b303:	d9 c9                	fxch   %st(1)
 804b305:	da e9                	fucompp 
 804b307:	df e0                	fnstsw %ax
 804b309:	9e                   	sahf   
 804b30a:	77 02                	ja     804b30e <GAThread::mutation(indiv*)+0x13c>
 804b30c:	eb 08                	jmp    804b316 <GAThread::mutation(indiv*)+0x144>
 804b30e:	b8 00 00 80 3f       	mov    $0x3f800000,%eax
 804b313:	89 45 f0             	mov    %eax,-0x10(%ebp)
 804b316:	8b 45 08             	mov    0x8(%ebp),%eax
 804b319:	d9 80 0c 10 00 00    	flds   0x100c(%eax)
 804b31f:	d9 e8                	fld1   
 804b321:	de c1                	faddp  %st,%st(1)
 804b323:	d9 45 f0             	flds   -0x10(%ebp)
 804b326:	d9 e8                	fld1   
 804b328:	de e1                	fsubp  %st,%st(1)
 804b32a:	d9 c9                	fxch   %st(1)
 804b32c:	dd 5c 24 08          	fstpl  0x8(%esp)
 804b330:	dd 1c 24             	fstpl  (%esp)
 804b333:	e8 58 d9 ff ff       	call   8048c90 <pow@plt>
 804b338:	d9 e8                	fld1   
 804b33a:	de e9                	fsubrp %st,%st(1)
 804b33c:	d9 5d ec             	fstps  -0x14(%ebp)
 804b33f:	d9 45 f8             	flds   -0x8(%ebp)
 804b342:	d9 c0                	fld    %st(0)
 804b344:	de c1                	faddp  %st,%st(1)
 804b346:	8b 55 dc             	mov    -0x24(%ebp),%edx
 804b349:	8b 45 08             	mov    0x8(%ebp),%eax
 804b34c:	d9 84 90 90 11 00 00 	flds   0x1190(%eax,%edx,4)
 804b353:	8b 55 dc             	mov    -0x24(%ebp),%edx
 804b356:	8b 45 08             	mov    0x8(%ebp),%eax
 804b359:	d9 84 90 18 11 00 00 	flds   0x1118(%eax,%edx,4)
 804b360:	de e9                	fsubrp %st,%st(1)
 804b362:	de f9                	fdivrp %st,%st(1)
 804b364:	d9 5d f0             	fstps  -0x10(%ebp)
 804b367:	d9 45 f0             	flds   -0x10(%ebp)
 804b36a:	d9 e8                	fld1   
 804b36c:	d9 c9                	fxch   %st(1)
 804b36e:	da e9                	fucompp 
 804b370:	df e0                	fnstsw %ax
 804b372:	9e                   	sahf   
 804b373:	77 02                	ja     804b377 <GAThread::mutation(indiv*)+0x1a5>
 804b375:	eb 08                	jmp    804b37f <GAThread::mutation(indiv*)+0x1ad>
 804b377:	b8 00 00 80 3f       	mov    $0x3f800000,%eax
 804b37c:	89 45 f0             	mov    %eax,-0x10(%ebp)
 804b37f:	8b 45 08             	mov    0x8(%ebp),%eax
 804b382:	d9 80 0c 10 00 00    	flds   0x100c(%eax)
 804b388:	d9 e8                	fld1   
 804b38a:	de c1                	faddp  %st,%st(1)
 804b38c:	d9 45 f0             	flds   -0x10(%ebp)
 804b38f:	d9 e8                	fld1   
 804b391:	de e1                	fsubp  %st,%st(1)
 804b393:	d9 c9                	fxch   %st(1)
 804b395:	dd 5c 24 08          	fstpl  0x8(%esp)
 804b399:	dd 1c 24             	fstpl  (%esp)
 804b39c:	e8 ef d8 ff ff       	call   8048c90 <pow@plt>
 804b3a1:	d9 e8                	fld1   
 804b3a3:	de e1                	fsubp  %st,%st(1)
 804b3a5:	d9 5d e8             	fstps  -0x18(%ebp)
 804b3a8:	8b 45 e8             	mov    -0x18(%ebp),%eax
 804b3ab:	89 44 24 08          	mov    %eax,0x8(%esp)
 804b3af:	8b 45 ec             	mov    -0x14(%ebp),%eax
 804b3b2:	89 44 24 04          	mov    %eax,0x4(%esp)
 804b3b6:	8b 45 08             	mov    0x8(%ebp),%eax
 804b3b9:	89 04 24             	mov    %eax,(%esp)
 804b3bc:	e8 7b 1d 00 00       	call   804d13c <GAThread::rndreal(float, float)>
 804b3c1:	d9 5d e4             	fstps  -0x1c(%ebp)
 804b3c4:	eb 20                	jmp    804b3e6 <GAThread::mutation(indiv*)+0x214>
 804b3c6:	b8 00 00 80 3f       	mov    $0x3f800000,%eax
 804b3cb:	89 44 24 08          	mov    %eax,0x8(%esp)
 804b3cf:	b8 00 00 80 bf       	mov    $0xbf800000,%eax
 804b3d4:	89 44 24 04          	mov    %eax,0x4(%esp)
 804b3d8:	8b 45 08             	mov    0x8(%ebp),%eax
 804b3db:	89 04 24             	mov    %eax,(%esp)
 804b3de:	e8 59 1d 00 00       	call   804d13c <GAThread::rndreal(float, float)>
 804b3e3:	d9 5d e4             	fstps  -0x1c(%ebp)
 804b3e6:	8b 45 e4             	mov    -0x1c(%ebp),%eax
 804b3e9:	89 44 24 04          	mov    %eax,0x4(%esp)
 804b3ed:	8b 45 08             	mov    0x8(%ebp),%eax
 804b3f0:	89 04 24             	mov    %eax,(%esp)
 804b3f3:	e8 de de ff ff       	call   80492d6 <GAThread::get_delta(float)>
 804b3f8:	dd 05 88 f6 04 08    	fldl   0x804f688
 804b3fe:	de c9                	fmulp  %st,%st(1)
 804b400:	8b 55 dc             	mov    -0x24(%ebp),%edx
 804b403:	8b 45 08             	mov    0x8(%ebp),%eax
 804b406:	d9 84 90 90 11 00 00 	flds   0x1190(%eax,%edx,4)
 804b40d:	8b 55 dc             	mov    -0x24(%ebp),%edx
 804b410:	8b 45 08             	mov    0x8(%ebp),%eax
 804b413:	d9 84 90 18 11 00 00 	flds   0x1118(%eax,%edx,4)
 804b41a:	de e9                	fsubrp %st,%st(1)
 804b41c:	de c9                	fmulp  %st,%st(1)
 804b41e:	d9 5d f0             	fstps  -0x10(%ebp)
 804b421:	8b 4d dc             	mov    -0x24(%ebp),%ecx
 804b424:	8b 55 dc             	mov    -0x24(%ebp),%edx
 804b427:	8b 45 0c             	mov    0xc(%ebp),%eax
 804b42a:	d9 04 90             	flds   (%eax,%edx,4)
 804b42d:	d8 45 f0             	fadds  -0x10(%ebp)
 804b430:	8b 45 0c             	mov    0xc(%ebp),%eax
 804b433:	d9 1c 88             	fstps  (%eax,%ecx,4)
 804b436:	8b 45 08             	mov    0x8(%ebp),%eax
 804b439:	8b 40 48             	mov    0x48(%eax),%eax
 804b43c:	85 c0                	test   %eax,%eax
 804b43e:	74 12                	je     804b452 <GAThread::mutation(indiv*)+0x280>
 804b440:	8b 45 0c             	mov    0xc(%ebp),%eax
 804b443:	89 44 24 04          	mov    %eax,0x4(%esp)
 804b447:	8b 45 08             	mov    0x8(%ebp),%eax
 804b44a:	89 04 24             	mov    %eax,(%esp)
 804b44d:	e8 0c fc ff ff       	call   804b05e <GAThread::binmutation(indiv*)>
 804b452:	c9                   	leave  
 804b453:	c3                   	ret    

0804b454 <GAThread::create_children(float, float, float*, float*, float, float, float*)>:
 804b454:	55                   	push   %ebp
 804b455:	89 e5                	mov    %esp,%ebp
 804b457:	83 ec 48             	sub    $0x48,%esp
 804b45a:	83 7d 14 00          	cmpl   $0x0,0x14(%ebp)
 804b45e:	75 0c                	jne    804b46c <GAThread::create_children(float, float, float*, float*, float, float, float*)+0x18>
 804b460:	c7 04 24 c5 ee 04 08 	movl   $0x804eec5,(%esp)
 804b467:	e8 60 e1 ff ff       	call   80495cc <error_ptr_null(char const*)>
 804b46c:	83 7d 18 00          	cmpl   $0x0,0x18(%ebp)
 804b470:	75 0c                	jne    804b47e <GAThread::create_children(float, float, float*, float*, float, float, float*)+0x2a>
 804b472:	c7 04 24 db ee 04 08 	movl   $0x804eedb,(%esp)
 804b479:	e8 4e e1 ff ff       	call   80495cc <error_ptr_null(char const*)>
 804b47e:	83 7d 24 00          	cmpl   $0x0,0x24(%ebp)
 804b482:	75 0c                	jne    804b490 <GAThread::create_children(float, float, float*, float*, float, float, float*)+0x3c>
 804b484:	c7 04 24 f1 ee 04 08 	movl   $0x804eef1,(%esp)
 804b48b:	e8 3c e1 ff ff       	call   80495cc <error_ptr_null(char const*)>
 804b490:	c7 45 dc 00 00 00 00 	movl   $0x0,-0x24(%ebp)
 804b497:	d9 45 0c             	flds   0xc(%ebp)
 804b49a:	d9 45 10             	flds   0x10(%ebp)
 804b49d:	d9 c9                	fxch   %st(1)
 804b49f:	da e9                	fucompp 
 804b4a1:	df e0                	fnstsw %ax
 804b4a3:	9e                   	sahf   
 804b4a4:	77 02                	ja     804b4a8 <GAThread::create_children(float, float, float*, float*, float, float, float*)+0x54>
 804b4a6:	eb 19                	jmp    804b4c1 <GAThread::create_children(float, float, float*, float*, float, float, float*)+0x6d>
 804b4a8:	8b 45 0c             	mov    0xc(%ebp),%eax
 804b4ab:	89 45 e4             	mov    %eax,-0x1c(%ebp)
 804b4ae:	8b 45 10             	mov    0x10(%ebp),%eax
 804b4b1:	89 45 0c             	mov    %eax,0xc(%ebp)
 804b4b4:	8b 45 e4             	mov    -0x1c(%ebp),%eax
 804b4b7:	89 45 10             	mov    %eax,0x10(%ebp)
 804b4ba:	c7 45 dc 01 00 00 00 	movl   $0x1,-0x24(%ebp)
 804b4c1:	d9 45 0c             	flds   0xc(%ebp)
 804b4c4:	d8 45 10             	fadds  0x10(%ebp)
 804b4c7:	d9 05 80 f6 04 08    	flds   0x804f680
 804b4cd:	de c9                	fmulp  %st,%st(1)
 804b4cf:	d9 5d f8             	fstps  -0x8(%ebp)
 804b4d2:	d9 45 10             	flds   0x10(%ebp)
 804b4d5:	d8 65 0c             	fsubs  0xc(%ebp)
 804b4d8:	d9 5d fc             	fstps  -0x4(%ebp)
 804b4db:	d9 45 0c             	flds   0xc(%ebp)
 804b4de:	d8 65 1c             	fsubs  0x1c(%ebp)
 804b4e1:	d9 45 20             	flds   0x20(%ebp)
 804b4e4:	d8 65 10             	fsubs  0x10(%ebp)
 804b4e7:	da e9                	fucompp 
 804b4e9:	df e0                	fnstsw %ax
 804b4eb:	9e                   	sahf   
 804b4ec:	77 02                	ja     804b4f0 <GAThread::create_children(float, float, float*, float*, float, float, float*)+0x9c>
 804b4ee:	eb 0b                	jmp    804b4fb <GAThread::create_children(float, float, float*, float*, float, float, float*)+0xa7>
 804b4f0:	d9 45 0c             	flds   0xc(%ebp)
 804b4f3:	d8 65 1c             	fsubs  0x1c(%ebp)
 804b4f6:	d9 5d ec             	fstps  -0x14(%ebp)
 804b4f9:	eb 09                	jmp    804b504 <GAThread::create_children(float, float, float*, float*, float, float, float*)+0xb0>
 804b4fb:	d9 45 20             	flds   0x20(%ebp)
 804b4fe:	d8 65 10             	fsubs  0x10(%ebp)
 804b501:	d9 5d ec             	fstps  -0x14(%ebp)
 804b504:	d9 45 ec             	flds   -0x14(%ebp)
 804b507:	d9 ee                	fldz   
 804b509:	da e9                	fucompp 
 804b50b:	df e0                	fnstsw %ax
 804b50d:	9e                   	sahf   
 804b50e:	77 02                	ja     804b512 <GAThread::create_children(float, float, float*, float*, float, float, float*)+0xbe>
 804b510:	eb 08                	jmp    804b51a <GAThread::create_children(float, float, float*, float*, float, float, float*)+0xc6>
 804b512:	b8 00 00 00 00       	mov    $0x0,%eax
 804b517:	89 45 ec             	mov    %eax,-0x14(%ebp)
 804b51a:	8b 45 08             	mov    0x8(%ebp),%eax
 804b51d:	8b 40 44             	mov    0x44(%eax),%eax
 804b520:	85 c0                	test   %eax,%eax
 804b522:	74 6f                	je     804b593 <GAThread::create_children(float, float, float*, float*, float, float, float*)+0x13f>
 804b524:	d9 45 fc             	flds   -0x4(%ebp)
 804b527:	dd 05 78 f6 04 08    	fldl   0x804f678
 804b52d:	d9 c9                	fxch   %st(1)
 804b52f:	da e9                	fucompp 
 804b531:	df e0                	fnstsw %ax
 804b533:	9e                   	sahf   
 804b534:	0f 97 c0             	seta   %al
 804b537:	83 f0 01             	xor    $0x1,%eax
 804b53a:	84 c0                	test   %al,%al
 804b53c:	75 55                	jne    804b593 <GAThread::create_children(float, float, float*, float*, float, float, float*)+0x13f>
 804b53e:	d9 45 ec             	flds   -0x14(%ebp)
 804b541:	d9 c0                	fld    %st(0)
 804b543:	de c1                	faddp  %st,%st(1)
 804b545:	d9 45 fc             	flds   -0x4(%ebp)
 804b548:	de f9                	fdivrp %st,%st(1)
 804b54a:	d9 e8                	fld1   
 804b54c:	de c1                	faddp  %st,%st(1)
 804b54e:	d9 5d e0             	fstps  -0x20(%ebp)
 804b551:	8b 45 08             	mov    0x8(%ebp),%eax
 804b554:	d9 80 08 10 00 00    	flds   0x1008(%eax)
 804b55a:	d9 e8                	fld1   
 804b55c:	de c1                	faddp  %st,%st(1)
 804b55e:	d9 45 e0             	flds   -0x20(%ebp)
 804b561:	d9 c9                	fxch   %st(1)
 804b563:	dd 5c 24 08          	fstpl  0x8(%esp)
 804b567:	dd 1c 24             	fstpl  (%esp)
 804b56a:	e8 21 d7 ff ff       	call   8048c90 <pow@plt>
 804b56f:	dd 05 a0 f6 04 08    	fldl   0x804f6a0
 804b575:	de f1                	fdivp  %st,%st(1)
 804b577:	d9 e8                	fld1   
 804b579:	de c1                	faddp  %st,%st(1)
 804b57b:	d9 5d e8             	fstps  -0x18(%ebp)
 804b57e:	8b 45 08             	mov    0x8(%ebp),%eax
 804b581:	89 04 24             	mov    %eax,(%esp)
 804b584:	e8 bb 1a 00 00       	call   804d044 <GAThread::randomperc()>
 804b589:	d8 4d e8             	fmuls  -0x18(%ebp)
 804b58c:	8b 45 24             	mov    0x24(%ebp),%eax
 804b58f:	d9 18                	fstps  (%eax)
 804b591:	eb 10                	jmp    804b5a3 <GAThread::create_children(float, float, float*, float*, float, float, float*)+0x14f>
 804b593:	8b 45 08             	mov    0x8(%ebp),%eax
 804b596:	89 04 24             	mov    %eax,(%esp)
 804b599:	e8 a6 1a 00 00       	call   804d044 <GAThread::randomperc()>
 804b59e:	8b 45 24             	mov    0x24(%ebp),%eax
 804b5a1:	d9 18                	fstps  (%eax)
 804b5a3:	8b 45 24             	mov    0x24(%ebp),%eax
 804b5a6:	8b 00                	mov    (%eax),%eax
 804b5a8:	89 44 24 04          	mov    %eax,0x4(%esp)
 804b5ac:	8b 45 08             	mov    0x8(%ebp),%eax
 804b5af:	89 04 24             	mov    %eax,(%esp)
 804b5b2:	e8 d9 dd ff ff       	call   8049390 <GAThread::get_beta(float)>
 804b5b7:	d9 5d f4             	fstps  -0xc(%ebp)
 804b5ba:	d9 45 fc             	flds   -0x4(%ebp)
 804b5bd:	d8 4d f4             	fmuls  -0xc(%ebp)
 804b5c0:	d9 1c 24             	fstps  (%esp)
 804b5c3:	e8 76 19 00 00       	call   804cf3e <std::fabs(float)>
 804b5c8:	d9 05 a8 f6 04 08    	flds   0x804f6a8
 804b5ce:	d9 c9                	fxch   %st(1)
 804b5d0:	da e9                	fucompp 
 804b5d2:	df e0                	fnstsw %ax
 804b5d4:	9e                   	sahf   
 804b5d5:	0f 97 c0             	seta   %al
 804b5d8:	84 c0                	test   %al,%al
 804b5da:	74 0c                	je     804b5e8 <GAThread::create_children(float, float, float*, float*, float, float, float*)+0x194>
 804b5dc:	d9 05 a8 f6 04 08    	flds   0x804f6a8
 804b5e2:	d8 75 fc             	fdivs  -0x4(%ebp)
 804b5e5:	d9 5d f4             	fstps  -0xc(%ebp)
 804b5e8:	d9 45 f8             	flds   -0x8(%ebp)
 804b5eb:	d9 45 f4             	flds   -0xc(%ebp)
 804b5ee:	dd 05 88 f6 04 08    	fldl   0x804f688
 804b5f4:	de c9                	fmulp  %st,%st(1)
 804b5f6:	d9 45 fc             	flds   -0x4(%ebp)
 804b5f9:	de c9                	fmulp  %st,%st(1)
 804b5fb:	de c1                	faddp  %st,%st(1)
 804b5fd:	d9 5d cc             	fstps  -0x34(%ebp)
 804b600:	d9 45 cc             	flds   -0x34(%ebp)
 804b603:	8b 45 18             	mov    0x18(%ebp),%eax
 804b606:	d9 18                	fstps  (%eax)
 804b608:	d9 45 f8             	flds   -0x8(%ebp)
 804b60b:	d9 45 f4             	flds   -0xc(%ebp)
 804b60e:	dd 05 a0 f6 04 08    	fldl   0x804f6a0
 804b614:	de c9                	fmulp  %st,%st(1)
 804b616:	d9 45 fc             	flds   -0x4(%ebp)
 804b619:	de c9                	fmulp  %st,%st(1)
 804b61b:	de c1                	faddp  %st,%st(1)
 804b61d:	d9 5d cc             	fstps  -0x34(%ebp)
 804b620:	d9 45 cc             	flds   -0x34(%ebp)
 804b623:	8b 45 14             	mov    0x14(%ebp),%eax
 804b626:	d9 18                	fstps  (%eax)
 804b628:	83 7d dc 01          	cmpl   $0x1,-0x24(%ebp)
 804b62c:	75 1a                	jne    804b648 <GAThread::create_children(float, float, float*, float*, float, float, float*)+0x1f4>
 804b62e:	8b 45 14             	mov    0x14(%ebp),%eax
 804b631:	8b 00                	mov    (%eax),%eax
 804b633:	89 45 e4             	mov    %eax,-0x1c(%ebp)
 804b636:	8b 45 18             	mov    0x18(%ebp),%eax
 804b639:	8b 10                	mov    (%eax),%edx
 804b63b:	8b 45 14             	mov    0x14(%ebp),%eax
 804b63e:	89 10                	mov    %edx,(%eax)
 804b640:	8b 55 18             	mov    0x18(%ebp),%edx
 804b643:	8b 45 e4             	mov    -0x1c(%ebp),%eax
 804b646:	89 02                	mov    %eax,(%edx)
 804b648:	c9                   	leave  
 804b649:	c3                   	ret    

0804b64a <GAThread::cross_over_unif(int, int, int, int)>:
 804b64a:	55                   	push   %ebp
 804b64b:	89 e5                	mov    %esp,%ebp
 804b64d:	57                   	push   %edi
 804b64e:	56                   	push   %esi
 804b64f:	53                   	push   %ebx
 804b650:	83 ec 5c             	sub    $0x5c,%esp
 804b653:	b8 00 00 00 00       	mov    $0x0,%eax
 804b658:	89 45 e4             	mov    %eax,-0x1c(%ebp)
 804b65b:	8b 45 08             	mov    0x8(%ebp),%eax
 804b65e:	8b 80 10 10 00 00    	mov    0x1010(%eax),%eax
 804b664:	89 44 24 04          	mov    %eax,0x4(%esp)
 804b668:	8b 45 08             	mov    0x8(%ebp),%eax
 804b66b:	89 04 24             	mov    %eax,(%esp)
 804b66e:	e8 2d 1a 00 00       	call   804d0a0 <GAThread::flip(float)>
 804b673:	85 c0                	test   %eax,%eax
 804b675:	0f 95 c0             	setne  %al
 804b678:	84 c0                	test   %al,%al
 804b67a:	0f 84 fe 02 00 00    	je     804b97e <GAThread::cross_over_unif(int, int, int, int)+0x334>
 804b680:	8b 45 08             	mov    0x8(%ebp),%eax
 804b683:	8b 40 0c             	mov    0xc(%eax),%eax
 804b686:	8d 50 01             	lea    0x1(%eax),%edx
 804b689:	8b 45 08             	mov    0x8(%ebp),%eax
 804b68c:	89 50 0c             	mov    %edx,0xc(%eax)
 804b68f:	8b 45 08             	mov    0x8(%ebp),%eax
 804b692:	8b 40 48             	mov    0x48(%eax),%eax
 804b695:	85 c0                	test   %eax,%eax
 804b697:	0f 84 15 01 00 00    	je     804b7b2 <GAThread::cross_over_unif(int, int, int, int)+0x168>
 804b69d:	8b 45 08             	mov    0x8(%ebp),%eax
 804b6a0:	8b 90 10 12 00 00    	mov    0x1210(%eax),%edx
 804b6a6:	8b 45 18             	mov    0x18(%ebp),%eax
 804b6a9:	69 c0 94 00 00 00    	imul   $0x94,%eax,%eax
 804b6af:	8d 04 02             	lea    (%edx,%eax,1),%eax
 804b6b2:	8b 88 84 00 00 00    	mov    0x84(%eax),%ecx
 804b6b8:	8b 45 08             	mov    0x8(%ebp),%eax
 804b6bb:	8b 90 10 12 00 00    	mov    0x1210(%eax),%edx
 804b6c1:	8b 45 18             	mov    0x18(%ebp),%eax
 804b6c4:	69 c0 94 00 00 00    	imul   $0x94,%eax,%eax
 804b6ca:	8d 04 02             	lea    (%edx,%eax,1),%eax
 804b6cd:	8b 98 80 00 00 00    	mov    0x80(%eax),%ebx
 804b6d3:	8b 45 08             	mov    0x8(%ebp),%eax
 804b6d6:	8b 90 10 12 00 00    	mov    0x1210(%eax),%edx
 804b6dc:	8b 45 14             	mov    0x14(%ebp),%eax
 804b6df:	69 c0 94 00 00 00    	imul   $0x94,%eax,%eax
 804b6e5:	8d 04 02             	lea    (%edx,%eax,1),%eax
 804b6e8:	8b b0 84 00 00 00    	mov    0x84(%eax),%esi
 804b6ee:	8b 45 08             	mov    0x8(%ebp),%eax
 804b6f1:	8b 90 10 12 00 00    	mov    0x1210(%eax),%edx
 804b6f7:	8b 45 14             	mov    0x14(%ebp),%eax
 804b6fa:	69 c0 94 00 00 00    	imul   $0x94,%eax,%eax
 804b700:	8d 04 02             	lea    (%edx,%eax,1),%eax
 804b703:	8b b8 80 00 00 00    	mov    0x80(%eax),%edi
 804b709:	8b 45 08             	mov    0x8(%ebp),%eax
 804b70c:	8b 90 0c 12 00 00    	mov    0x120c(%eax),%edx
 804b712:	8b 45 0c             	mov    0xc(%ebp),%eax
 804b715:	69 c0 94 00 00 00    	imul   $0x94,%eax,%eax
 804b71b:	8d 04 02             	lea    (%edx,%eax,1),%eax
 804b71e:	8b 80 84 00 00 00    	mov    0x84(%eax),%eax
 804b724:	89 45 c4             	mov    %eax,-0x3c(%ebp)
 804b727:	8b 45 08             	mov    0x8(%ebp),%eax
 804b72a:	8b 90 0c 12 00 00    	mov    0x120c(%eax),%edx
 804b730:	8b 45 10             	mov    0x10(%ebp),%eax
 804b733:	69 c0 94 00 00 00    	imul   $0x94,%eax,%eax
 804b739:	8d 04 02             	lea    (%edx,%eax,1),%eax
 804b73c:	8b 80 80 00 00 00    	mov    0x80(%eax),%eax
 804b742:	89 45 c8             	mov    %eax,-0x38(%ebp)
 804b745:	8b 45 08             	mov    0x8(%ebp),%eax
 804b748:	8b 90 0c 12 00 00    	mov    0x120c(%eax),%edx
 804b74e:	8b 45 0c             	mov    0xc(%ebp),%eax
 804b751:	69 c0 94 00 00 00    	imul   $0x94,%eax,%eax
 804b757:	8d 04 02             	lea    (%edx,%eax,1),%eax
 804b75a:	8b 80 84 00 00 00    	mov    0x84(%eax),%eax
 804b760:	89 45 cc             	mov    %eax,-0x34(%ebp)
 804b763:	8b 45 08             	mov    0x8(%ebp),%eax
 804b766:	8b 90 0c 12 00 00    	mov    0x120c(%eax),%edx
 804b76c:	8b 45 0c             	mov    0xc(%ebp),%eax
 804b76f:	69 c0 94 00 00 00    	imul   $0x94,%eax,%eax
 804b775:	8d 04 02             	lea    (%edx,%eax,1),%eax
 804b778:	8b 80 80 00 00 00    	mov    0x80(%eax),%eax
 804b77e:	89 4c 24 20          	mov    %ecx,0x20(%esp)
 804b782:	89 5c 24 1c          	mov    %ebx,0x1c(%esp)
 804b786:	89 74 24 18          	mov    %esi,0x18(%esp)
 804b78a:	89 7c 24 14          	mov    %edi,0x14(%esp)
 804b78e:	8b 55 c4             	mov    -0x3c(%ebp),%edx
 804b791:	89 54 24 10          	mov    %edx,0x10(%esp)
 804b795:	8b 55 c8             	mov    -0x38(%ebp),%edx
 804b798:	89 54 24 0c          	mov    %edx,0xc(%esp)
 804b79c:	8b 55 cc             	mov    -0x34(%ebp),%edx
 804b79f:	89 54 24 08          	mov    %edx,0x8(%esp)
 804b7a3:	89 44 24 04          	mov    %eax,0x4(%esp)
 804b7a7:	8b 45 08             	mov    0x8(%ebp),%eax
 804b7aa:	89 04 24             	mov    %eax,(%esp)
 804b7ad:	e8 06 f3 ff ff       	call   804aab8 <GAThread::binary_xover(unsigned int*, float*, unsigned int*, float*, unsigned int*, float*, unsigned int*, float*)>
 804b7b2:	8b 45 08             	mov    0x8(%ebp),%eax
 804b7b5:	8b 40 4c             	mov    0x4c(%eax),%eax
 804b7b8:	85 c0                	test   %eax,%eax
 804b7ba:	0f 84 ba 03 00 00    	je     804bb7a <GAThread::cross_over_unif(int, int, int, int)+0x530>
 804b7c0:	8b 45 08             	mov    0x8(%ebp),%eax
 804b7c3:	8b 40 1c             	mov    0x1c(%eax),%eax
 804b7c6:	89 45 e0             	mov    %eax,-0x20(%ebp)
 804b7c9:	e9 5b 01 00 00       	jmp    804b929 <GAThread::cross_over_unif(int, int, int, int)+0x2df>
 804b7ce:	b8 00 00 00 3f       	mov    $0x3f000000,%eax
 804b7d3:	89 44 24 04          	mov    %eax,0x4(%esp)
 804b7d7:	8b 45 08             	mov    0x8(%ebp),%eax
 804b7da:	89 04 24             	mov    %eax,(%esp)
 804b7dd:	e8 be 18 00 00       	call   804d0a0 <GAThread::flip(float)>
 804b7e2:	85 c0                	test   %eax,%eax
 804b7e4:	75 0b                	jne    804b7f1 <GAThread::cross_over_unif(int, int, int, int)+0x1a7>
 804b7e6:	8b 45 08             	mov    0x8(%ebp),%eax
 804b7e9:	8b 40 18             	mov    0x18(%eax),%eax
 804b7ec:	83 f8 01             	cmp    $0x1,%eax
 804b7ef:	75 06                	jne    804b7f7 <GAThread::cross_over_unif(int, int, int, int)+0x1ad>
 804b7f1:	c6 45 d3 01          	movb   $0x1,-0x2d(%ebp)
 804b7f5:	eb 04                	jmp    804b7fb <GAThread::cross_over_unif(int, int, int, int)+0x1b1>
 804b7f7:	c6 45 d3 00          	movb   $0x0,-0x2d(%ebp)
 804b7fb:	0f b6 45 d3          	movzbl -0x2d(%ebp),%eax
 804b7ff:	84 c0                	test   %al,%al
 804b801:	0f 84 b4 00 00 00    	je     804b8bb <GAThread::cross_over_unif(int, int, int, int)+0x271>
 804b807:	8b 55 e0             	mov    -0x20(%ebp),%edx
 804b80a:	8b 45 08             	mov    0x8(%ebp),%eax
 804b80d:	8b 8c 90 90 11 00 00 	mov    0x1190(%eax,%edx,4),%ecx
 804b814:	8b 55 e0             	mov    -0x20(%ebp),%edx
 804b817:	8b 45 08             	mov    0x8(%ebp),%eax
 804b81a:	8b 9c 90 18 11 00 00 	mov    0x1118(%eax,%edx,4),%ebx
 804b821:	8b 45 08             	mov    0x8(%ebp),%eax
 804b824:	8b 90 10 12 00 00    	mov    0x1210(%eax),%edx
 804b82a:	8b 45 18             	mov    0x18(%ebp),%eax
 804b82d:	69 c0 94 00 00 00    	imul   $0x94,%eax,%eax
 804b833:	01 c2                	add    %eax,%edx
 804b835:	8b 45 e0             	mov    -0x20(%ebp),%eax
 804b838:	c1 e0 02             	shl    $0x2,%eax
 804b83b:	8d 34 02             	lea    (%edx,%eax,1),%esi
 804b83e:	8b 45 08             	mov    0x8(%ebp),%eax
 804b841:	8b 90 10 12 00 00    	mov    0x1210(%eax),%edx
 804b847:	8b 45 14             	mov    0x14(%ebp),%eax
 804b84a:	69 c0 94 00 00 00    	imul   $0x94,%eax,%eax
 804b850:	01 c2                	add    %eax,%edx
 804b852:	8b 45 e0             	mov    -0x20(%ebp),%eax
 804b855:	c1 e0 02             	shl    $0x2,%eax
 804b858:	8d 3c 02             	lea    (%edx,%eax,1),%edi
 804b85b:	8b 45 08             	mov    0x8(%ebp),%eax
 804b85e:	8b 90 0c 12 00 00    	mov    0x120c(%eax),%edx
 804b864:	8b 45 10             	mov    0x10(%ebp),%eax
 804b867:	69 c0 94 00 00 00    	imul   $0x94,%eax,%eax
 804b86d:	01 c2                	add    %eax,%edx
 804b86f:	8b 45 e0             	mov    -0x20(%ebp),%eax
 804b872:	d9 04 82             	flds   (%edx,%eax,4)
 804b875:	8b 45 08             	mov    0x8(%ebp),%eax
 804b878:	8b 90 0c 12 00 00    	mov    0x120c(%eax),%edx
 804b87e:	8b 45 0c             	mov    0xc(%ebp),%eax
 804b881:	69 c0 94 00 00 00    	imul   $0x94,%eax,%eax
 804b887:	01 c2                	add    %eax,%edx
 804b889:	8b 45 e0             	mov    -0x20(%ebp),%eax
 804b88c:	8b 14 82             	mov    (%edx,%eax,4),%edx
 804b88f:	8d 45 e4             	lea    -0x1c(%ebp),%eax
 804b892:	89 44 24 1c          	mov    %eax,0x1c(%esp)
 804b896:	89 4c 24 18          	mov    %ecx,0x18(%esp)
 804b89a:	89 5c 24 14          	mov    %ebx,0x14(%esp)
 804b89e:	89 74 24 10          	mov    %esi,0x10(%esp)
 804b8a2:	89 7c 24 0c          	mov    %edi,0xc(%esp)
 804b8a6:	d9 5c 24 08          	fstps  0x8(%esp)
 804b8aa:	89 54 24 04          	mov    %edx,0x4(%esp)
 804b8ae:	8b 45 08             	mov    0x8(%ebp),%eax
 804b8b1:	89 04 24             	mov    %eax,(%esp)
 804b8b4:	e8 9b fb ff ff       	call   804b454 <GAThread::create_children(float, float, float*, float*, float, float, float*)>
 804b8b9:	eb 6a                	jmp    804b925 <GAThread::cross_over_unif(int, int, int, int)+0x2db>
 804b8bb:	8b 45 08             	mov    0x8(%ebp),%eax
 804b8be:	8b 90 10 12 00 00    	mov    0x1210(%eax),%edx
 804b8c4:	8b 45 14             	mov    0x14(%ebp),%eax
 804b8c7:	69 c0 94 00 00 00    	imul   $0x94,%eax,%eax
 804b8cd:	8d 0c 02             	lea    (%edx,%eax,1),%ecx
 804b8d0:	8b 5d e0             	mov    -0x20(%ebp),%ebx
 804b8d3:	8b 45 08             	mov    0x8(%ebp),%eax
 804b8d6:	8b 90 0c 12 00 00    	mov    0x120c(%eax),%edx
 804b8dc:	8b 45 0c             	mov    0xc(%ebp),%eax
 804b8df:	69 c0 94 00 00 00    	imul   $0x94,%eax,%eax
 804b8e5:	01 c2                	add    %eax,%edx
 804b8e7:	8b 45 e0             	mov    -0x20(%ebp),%eax
 804b8ea:	8b 04 82             	mov    (%edx,%eax,4),%eax
 804b8ed:	89 04 99             	mov    %eax,(%ecx,%ebx,4)
 804b8f0:	8b 45 08             	mov    0x8(%ebp),%eax
 804b8f3:	8b 90 10 12 00 00    	mov    0x1210(%eax),%edx
 804b8f9:	8b 45 18             	mov    0x18(%ebp),%eax
 804b8fc:	69 c0 94 00 00 00    	imul   $0x94,%eax,%eax
 804b902:	8d 0c 02             	lea    (%edx,%eax,1),%ecx
 804b905:	8b 5d e0             	mov    -0x20(%ebp),%ebx
 804b908:	8b 45 08             	mov    0x8(%ebp),%eax
 804b90b:	8b 90 0c 12 00 00    	mov    0x120c(%eax),%edx
 804b911:	8b 45 10             	mov    0x10(%ebp),%eax
 804b914:	69 c0 94 00 00 00    	imul   $0x94,%eax,%eax
 804b91a:	01 c2                	add    %eax,%edx
 804b91c:	8b 45 e0             	mov    -0x20(%ebp),%eax
 804b91f:	8b 04 82             	mov    (%edx,%eax,4),%eax
 804b922:	89 04 99             	mov    %eax,(%ecx,%ebx,4)
 804b925:	83 45 e0 01          	addl   $0x1,-0x20(%ebp)
 804b929:	8b 45 08             	mov    0x8(%ebp),%eax
 804b92c:	8b 40 18             	mov    0x18(%eax),%eax
 804b92f:	83 e8 01             	sub    $0x1,%eax
 804b932:	3b 45 e0             	cmp    -0x20(%ebp),%eax
 804b935:	0f 8d 93 fe ff ff    	jge    804b7ce <GAThread::cross_over_unif(int, int, int, int)+0x184>
 804b93b:	8b 45 08             	mov    0x8(%ebp),%eax
 804b93e:	8b 90 10 12 00 00    	mov    0x1210(%eax),%edx
 804b944:	8b 45 14             	mov    0x14(%ebp),%eax
 804b947:	69 c0 94 00 00 00    	imul   $0x94,%eax,%eax
 804b94d:	8d 0c 02             	lea    (%edx,%eax,1),%ecx
 804b950:	8b 45 08             	mov    0x8(%ebp),%eax
 804b953:	8b 90 10 12 00 00    	mov    0x1210(%eax),%edx
 804b959:	8b 45 18             	mov    0x18(%ebp),%eax
 804b95c:	69 c0 94 00 00 00    	imul   $0x94,%eax,%eax
 804b962:	01 c2                	add    %eax,%edx
 804b964:	8b 45 e4             	mov    -0x1c(%ebp),%eax
 804b967:	89 82 90 00 00 00    	mov    %eax,0x90(%edx)
 804b96d:	8b 82 90 00 00 00    	mov    0x90(%edx),%eax
 804b973:	89 81 90 00 00 00    	mov    %eax,0x90(%ecx)
 804b979:	e9 fc 01 00 00       	jmp    804bb7a <GAThread::cross_over_unif(int, int, int, int)+0x530>
 804b97e:	8b 45 08             	mov    0x8(%ebp),%eax
 804b981:	8b 40 48             	mov    0x48(%eax),%eax
 804b984:	85 c0                	test   %eax,%eax
 804b986:	0f 84 69 01 00 00    	je     804baf5 <GAThread::cross_over_unif(int, int, int, int)+0x4ab>
 804b98c:	c7 45 dc 00 00 00 00 	movl   $0x0,-0x24(%ebp)
 804b993:	e9 9c 00 00 00       	jmp    804ba34 <GAThread::cross_over_unif(int, int, int, int)+0x3ea>
 804b998:	8b 45 08             	mov    0x8(%ebp),%eax
 804b99b:	8b 90 10 12 00 00    	mov    0x1210(%eax),%edx
 804b9a1:	8b 45 14             	mov    0x14(%ebp),%eax
 804b9a4:	69 c0 94 00 00 00    	imul   $0x94,%eax,%eax
 804b9aa:	8d 04 02             	lea    (%edx,%eax,1),%eax
 804b9ad:	8b 90 80 00 00 00    	mov    0x80(%eax),%edx
 804b9b3:	8b 45 dc             	mov    -0x24(%ebp),%eax
 804b9b6:	c1 e0 02             	shl    $0x2,%eax
 804b9b9:	8d 0c 02             	lea    (%edx,%eax,1),%ecx
 804b9bc:	8b 45 08             	mov    0x8(%ebp),%eax
 804b9bf:	8b 90 0c 12 00 00    	mov    0x120c(%eax),%edx
 804b9c5:	8b 45 0c             	mov    0xc(%ebp),%eax
 804b9c8:	69 c0 94 00 00 00    	imul   $0x94,%eax,%eax
 804b9ce:	8d 04 02             	lea    (%edx,%eax,1),%eax
 804b9d1:	8b 90 80 00 00 00    	mov    0x80(%eax),%edx
 804b9d7:	8b 45 dc             	mov    -0x24(%ebp),%eax
 804b9da:	c1 e0 02             	shl    $0x2,%eax
 804b9dd:	8d 04 02             	lea    (%edx,%eax,1),%eax
 804b9e0:	8b 00                	mov    (%eax),%eax
 804b9e2:	89 01                	mov    %eax,(%ecx)
 804b9e4:	8b 45 08             	mov    0x8(%ebp),%eax
 804b9e7:	8b 90 10 12 00 00    	mov    0x1210(%eax),%edx
 804b9ed:	8b 45 18             	mov    0x18(%ebp),%eax
 804b9f0:	69 c0 94 00 00 00    	imul   $0x94,%eax,%eax
 804b9f6:	8d 04 02             	lea    (%edx,%eax,1),%eax
 804b9f9:	8b 90 80 00 00 00    	mov    0x80(%eax),%edx
 804b9ff:	8b 45 dc             	mov    -0x24(%ebp),%eax
 804ba02:	c1 e0 02             	shl    $0x2,%eax
 804ba05:	8d 0c 02             	lea    (%edx,%eax,1),%ecx
 804ba08:	8b 45 08             	mov    0x8(%ebp),%eax
 804ba0b:	8b 90 0c 12 00 00    	mov    0x120c(%eax),%edx
 804ba11:	8b 45 10             	mov    0x10(%ebp),%eax
 804ba14:	69 c0 94 00 00 00    	imul   $0x94,%eax,%eax
 804ba1a:	8d 04 02             	lea    (%edx,%eax,1),%eax
 804ba1d:	8b 90 80 00 00 00    	mov    0x80(%eax),%edx
 804ba23:	8b 45 dc             	mov    -0x24(%ebp),%eax
 804ba26:	c1 e0 02             	shl    $0x2,%eax
 804ba29:	8d 04 02             	lea    (%edx,%eax,1),%eax
 804ba2c:	8b 00                	mov    (%eax),%eax
 804ba2e:	89 01                	mov    %eax,(%ecx)
 804ba30:	83 45 dc 01          	addl   $0x1,-0x24(%ebp)
 804ba34:	8b 45 08             	mov    0x8(%ebp),%eax
 804ba37:	8b 40 24             	mov    0x24(%eax),%eax
 804ba3a:	3b 45 dc             	cmp    -0x24(%ebp),%eax
 804ba3d:	0f 8f 55 ff ff ff    	jg     804b998 <GAThread::cross_over_unif(int, int, int, int)+0x34e>
 804ba43:	c7 45 dc 00 00 00 00 	movl   $0x0,-0x24(%ebp)
 804ba4a:	e9 9c 00 00 00       	jmp    804baeb <GAThread::cross_over_unif(int, int, int, int)+0x4a1>
 804ba4f:	8b 45 08             	mov    0x8(%ebp),%eax
 804ba52:	8b 90 10 12 00 00    	mov    0x1210(%eax),%edx
 804ba58:	8b 45 14             	mov    0x14(%ebp),%eax
 804ba5b:	69 c0 94 00 00 00    	imul   $0x94,%eax,%eax
 804ba61:	8d 04 02             	lea    (%edx,%eax,1),%eax
 804ba64:	8b 90 84 00 00 00    	mov    0x84(%eax),%edx
 804ba6a:	8b 45 dc             	mov    -0x24(%ebp),%eax
 804ba6d:	c1 e0 02             	shl    $0x2,%eax
 804ba70:	8d 0c 02             	lea    (%edx,%eax,1),%ecx
 804ba73:	8b 45 08             	mov    0x8(%ebp),%eax
 804ba76:	8b 90 0c 12 00 00    	mov    0x120c(%eax),%edx
 804ba7c:	8b 45 0c             	mov    0xc(%ebp),%eax
 804ba7f:	69 c0 94 00 00 00    	imul   $0x94,%eax,%eax
 804ba85:	8d 04 02             	lea    (%edx,%eax,1),%eax
 804ba88:	8b 90 84 00 00 00    	mov    0x84(%eax),%edx
 804ba8e:	8b 45 dc             	mov    -0x24(%ebp),%eax
 804ba91:	c1 e0 02             	shl    $0x2,%eax
 804ba94:	8d 04 02             	lea    (%edx,%eax,1),%eax
 804ba97:	8b 00                	mov    (%eax),%eax
 804ba99:	89 01                	mov    %eax,(%ecx)
 804ba9b:	8b 45 08             	mov    0x8(%ebp),%eax
 804ba9e:	8b 90 10 12 00 00    	mov    0x1210(%eax),%edx
 804baa4:	8b 45 18             	mov    0x18(%ebp),%eax
 804baa7:	69 c0 94 00 00 00    	imul   $0x94,%eax,%eax
 804baad:	8d 04 02             	lea    (%edx,%eax,1),%eax
 804bab0:	8b 90 84 00 00 00    	mov    0x84(%eax),%edx
 804bab6:	8b 45 dc             	mov    -0x24(%ebp),%eax
 804bab9:	c1 e0 02             	shl    $0x2,%eax
 804babc:	8d 0c 02             	lea    (%edx,%eax,1),%ecx
 804babf:	8b 45 08             	mov    0x8(%ebp),%eax
 804bac2:	8b 90 0c 12 00 00    	mov    0x120c(%eax),%edx
 804bac8:	8b 45 10             	mov    0x10(%ebp),%eax
 804bacb:	69 c0 94 00 00 00    	imul   $0x94,%eax,%eax
 804bad1:	8d 04 02             	lea    (%edx,%eax,1),%eax
 804bad4:	8b 90 84 00 00 00    	mov    0x84(%eax),%edx
 804bada:	8b 45 dc             	mov    -0x24(%ebp),%eax
 804badd:	c1 e0 02             	shl    $0x2,%eax
 804bae0:	8d 04 02             	lea    (%edx,%eax,1),%eax
 804bae3:	8b 00                	mov    (%eax),%eax
 804bae5:	89 01                	mov    %eax,(%ecx)
 804bae7:	83 45 dc 01          	addl   $0x1,-0x24(%ebp)
 804baeb:	83 7d dc 07          	cmpl   $0x7,-0x24(%ebp)
 804baef:	0f 8e 5a ff ff ff    	jle    804ba4f <GAThread::cross_over_unif(int, int, int, int)+0x405>
 804baf5:	c7 45 e0 00 00 00 00 	movl   $0x0,-0x20(%ebp)
 804bafc:	eb 6e                	jmp    804bb6c <GAThread::cross_over_unif(int, int, int, int)+0x522>
 804bafe:	8b 45 08             	mov    0x8(%ebp),%eax
 804bb01:	8b 90 10 12 00 00    	mov    0x1210(%eax),%edx
 804bb07:	8b 45 14             	mov    0x14(%ebp),%eax
 804bb0a:	69 c0 94 00 00 00    	imul   $0x94,%eax,%eax
 804bb10:	8d 0c 02             	lea    (%edx,%eax,1),%ecx
 804bb13:	8b 5d e0             	mov    -0x20(%ebp),%ebx
 804bb16:	8b 45 08             	mov    0x8(%ebp),%eax
 804bb19:	8b 90 0c 12 00 00    	mov    0x120c(%eax),%edx
 804bb1f:	8b 45 0c             	mov    0xc(%ebp),%eax
 804bb22:	69 c0 94 00 00 00    	imul   $0x94,%eax,%eax
 804bb28:	01 c2                	add    %eax,%edx
 804bb2a:	8b 45 e0             	mov    -0x20(%ebp),%eax
 804bb2d:	8b 04 82             	mov    (%edx,%eax,4),%eax
 804bb30:	89 04 99             	mov    %eax,(%ecx,%ebx,4)
 804bb33:	8b 45 08             	mov    0x8(%ebp),%eax
 804bb36:	8b 90 10 12 00 00    	mov    0x1210(%eax),%edx
 804bb3c:	8b 45 18             	mov    0x18(%ebp),%eax
 804bb3f:	69 c0 94 00 00 00    	imul   $0x94,%eax,%eax
 804bb45:	8d 0c 02             	lea    (%edx,%eax,1),%ecx
 804bb48:	8b 5d e0             	mov    -0x20(%ebp),%ebx
 804bb4b:	8b 45 08             	mov    0x8(%ebp),%eax
 804bb4e:	8b 90 0c 12 00 00    	mov    0x120c(%eax),%edx
 804bb54:	8b 45 10             	mov    0x10(%ebp),%eax
 804bb57:	69 c0 94 00 00 00    	imul   $0x94,%eax,%eax
 804bb5d:	01 c2                	add    %eax,%edx
 804bb5f:	8b 45 e0             	mov    -0x20(%ebp),%eax
 804bb62:	8b 04 82             	mov    (%edx,%eax,4),%eax
 804bb65:	89 04 99             	mov    %eax,(%ecx,%ebx,4)
 804bb68:	83 45 e0 01          	addl   $0x1,-0x20(%ebp)
 804bb6c:	8b 45 08             	mov    0x8(%ebp),%eax
 804bb6f:	8b 40 18             	mov    0x18(%eax),%eax
 804bb72:	83 e8 01             	sub    $0x1,%eax
 804bb75:	3b 45 e0             	cmp    -0x20(%ebp),%eax
 804bb78:	7d 84                	jge    804bafe <GAThread::cross_over_unif(int, int, int, int)+0x4b4>
 804bb7a:	83 c4 5c             	add    $0x5c,%esp
 804bb7d:	5b                   	pop    %ebx
 804bb7e:	5e                   	pop    %esi
 804bb7f:	5f                   	pop    %edi
 804bb80:	5d                   	pop    %ebp
 804bb81:	c3                   	ret    

0804bb82 <GAThread::generate_new_pop()>:
 804bb82:	55                   	push   %ebp
 804bb83:	89 e5                	mov    %esp,%ebp
 804bb85:	83 ec 28             	sub    $0x28,%esp
 804bb88:	8b 45 08             	mov    0x8(%ebp),%eax
 804bb8b:	89 04 24             	mov    %eax,(%esp)
 804bb8e:	e8 11 f3 ff ff       	call   804aea4 <GAThread::preselect_tour()>
 804bb93:	c7 45 fc 00 00 00 00 	movl   $0x0,-0x4(%ebp)
 804bb9a:	e9 27 01 00 00       	jmp    804bcc6 <GAThread::generate_new_pop()+0x144>
 804bb9f:	8b 45 08             	mov    0x8(%ebp),%eax
 804bba2:	89 04 24             	mov    %eax,(%esp)
 804bba5:	e8 1a f3 ff ff       	call   804aec4 <GAThread::tour_select()>
 804bbaa:	89 45 f8             	mov    %eax,-0x8(%ebp)
 804bbad:	8b 45 08             	mov    0x8(%ebp),%eax
 804bbb0:	89 04 24             	mov    %eax,(%esp)
 804bbb3:	e8 0c f3 ff ff       	call   804aec4 <GAThread::tour_select()>
 804bbb8:	89 45 f4             	mov    %eax,-0xc(%ebp)
 804bbbb:	8b 45 fc             	mov    -0x4(%ebp),%eax
 804bbbe:	83 c0 01             	add    $0x1,%eax
 804bbc1:	89 44 24 10          	mov    %eax,0x10(%esp)
 804bbc5:	8b 45 fc             	mov    -0x4(%ebp),%eax
 804bbc8:	89 44 24 0c          	mov    %eax,0xc(%esp)
 804bbcc:	8b 45 f4             	mov    -0xc(%ebp),%eax
 804bbcf:	89 44 24 08          	mov    %eax,0x8(%esp)
 804bbd3:	8b 45 f8             	mov    -0x8(%ebp),%eax
 804bbd6:	89 44 24 04          	mov    %eax,0x4(%esp)
 804bbda:	8b 45 08             	mov    0x8(%ebp),%eax
 804bbdd:	89 04 24             	mov    %eax,(%esp)
 804bbe0:	e8 65 fa ff ff       	call   804b64a <GAThread::cross_over_unif(int, int, int, int)>
 804bbe5:	8b 45 08             	mov    0x8(%ebp),%eax
 804bbe8:	8b 90 10 12 00 00    	mov    0x1210(%eax),%edx
 804bbee:	8b 45 fc             	mov    -0x4(%ebp),%eax
 804bbf1:	69 c0 94 00 00 00    	imul   $0x94,%eax,%eax
 804bbf7:	8d 04 02             	lea    (%edx,%eax,1),%eax
 804bbfa:	89 44 24 04          	mov    %eax,0x4(%esp)
 804bbfe:	8b 45 08             	mov    0x8(%ebp),%eax
 804bc01:	89 04 24             	mov    %eax,(%esp)
 804bc04:	e8 c9 f5 ff ff       	call   804b1d2 <GAThread::mutation(indiv*)>
 804bc09:	8b 45 08             	mov    0x8(%ebp),%eax
 804bc0c:	8b 90 10 12 00 00    	mov    0x1210(%eax),%edx
 804bc12:	8b 45 fc             	mov    -0x4(%ebp),%eax
 804bc15:	69 c0 94 00 00 00    	imul   $0x94,%eax,%eax
 804bc1b:	8d 04 02             	lea    (%edx,%eax,1),%eax
 804bc1e:	05 94 00 00 00       	add    $0x94,%eax
 804bc23:	89 44 24 04          	mov    %eax,0x4(%esp)
 804bc27:	8b 45 08             	mov    0x8(%ebp),%eax
 804bc2a:	89 04 24             	mov    %eax,(%esp)
 804bc2d:	e8 a0 f5 ff ff       	call   804b1d2 <GAThread::mutation(indiv*)>
 804bc32:	8b 45 08             	mov    0x8(%ebp),%eax
 804bc35:	8b 90 10 12 00 00    	mov    0x1210(%eax),%edx
 804bc3b:	8b 45 fc             	mov    -0x4(%ebp),%eax
 804bc3e:	69 c0 94 00 00 00    	imul   $0x94,%eax,%eax
 804bc44:	8d 0c 02             	lea    (%edx,%eax,1),%ecx
 804bc47:	8b 45 08             	mov    0x8(%ebp),%eax
 804bc4a:	8b 90 10 12 00 00    	mov    0x1210(%eax),%edx
 804bc50:	8b 45 fc             	mov    -0x4(%ebp),%eax
 804bc53:	69 c0 94 00 00 00    	imul   $0x94,%eax,%eax
 804bc59:	8d 04 02             	lea    (%edx,%eax,1),%eax
 804bc5c:	8d 90 94 00 00 00    	lea    0x94(%eax),%edx
 804bc62:	8b 45 f8             	mov    -0x8(%ebp),%eax
 804bc65:	83 c0 01             	add    $0x1,%eax
 804bc68:	89 82 88 00 00 00    	mov    %eax,0x88(%edx)
 804bc6e:	8b 82 88 00 00 00    	mov    0x88(%edx),%eax
 804bc74:	89 81 88 00 00 00    	mov    %eax,0x88(%ecx)
 804bc7a:	8b 45 08             	mov    0x8(%ebp),%eax
 804bc7d:	8b 90 10 12 00 00    	mov    0x1210(%eax),%edx
 804bc83:	8b 45 fc             	mov    -0x4(%ebp),%eax
 804bc86:	69 c0 94 00 00 00    	imul   $0x94,%eax,%eax
 804bc8c:	8d 0c 02             	lea    (%edx,%eax,1),%ecx
 804bc8f:	8b 45 08             	mov    0x8(%ebp),%eax
 804bc92:	8b 90 10 12 00 00    	mov    0x1210(%eax),%edx
 804bc98:	8b 45 fc             	mov    -0x4(%ebp),%eax
 804bc9b:	69 c0 94 00 00 00    	imul   $0x94,%eax,%eax
 804bca1:	8d 04 02             	lea    (%edx,%eax,1),%eax
 804bca4:	8d 90 94 00 00 00    	lea    0x94(%eax),%edx
 804bcaa:	8b 45 f4             	mov    -0xc(%ebp),%eax
 804bcad:	83 c0 01             	add    $0x1,%eax
 804bcb0:	89 82 8c 00 00 00    	mov    %eax,0x8c(%edx)
 804bcb6:	8b 82 8c 00 00 00    	mov    0x8c(%edx),%eax
 804bcbc:	89 81 8c 00 00 00    	mov    %eax,0x8c(%ecx)
 804bcc2:	83 45 fc 02          	addl   $0x2,-0x4(%ebp)
 804bcc6:	8b 45 08             	mov    0x8(%ebp),%eax
 804bcc9:	8b 00                	mov    (%eax),%eax
 804bccb:	83 e8 01             	sub    $0x1,%eax
 804bcce:	3b 45 fc             	cmp    -0x4(%ebp),%eax
 804bcd1:	0f 8d c8 fe ff ff    	jge    804bb9f <GAThread::generate_new_pop()+0x1d>
 804bcd7:	c9                   	leave  
 804bcd8:	c3                   	ret    
 804bcd9:	90                   	nop    

0804bcda <GAThread::allocnewold()>:
 804bcda:	55                   	push   %ebp
 804bcdb:	89 e5                	mov    %esp,%ebp
 804bcdd:	53                   	push   %ebx
 804bcde:	81 ec 34 01 00 00    	sub    $0x134,%esp
 804bce4:	c7 45 d8 01 00 00 00 	movl   $0x1,-0x28(%ebp)
 804bceb:	8b 45 08             	mov    0x8(%ebp),%eax
 804bcee:	89 04 24             	mov    %eax,(%esp)
 804bcf1:	e8 52 15 00 00       	call   804d248 <GAThread::randomize()>
 804bcf6:	8b 45 08             	mov    0x8(%ebp),%eax
 804bcf9:	8b 00                	mov    (%eax),%eax
 804bcfb:	69 c0 94 00 00 00    	imul   $0x94,%eax,%eax
 804bd01:	89 04 24             	mov    %eax,(%esp)
 804bd04:	e8 d7 d0 ff ff       	call   8048de0 <malloc@plt>
 804bd09:	89 c2                	mov    %eax,%edx
 804bd0b:	8b 45 08             	mov    0x8(%ebp),%eax
 804bd0e:	89 90 0c 12 00 00    	mov    %edx,0x120c(%eax)
 804bd14:	8b 45 08             	mov    0x8(%ebp),%eax
 804bd17:	8b 80 0c 12 00 00    	mov    0x120c(%eax),%eax
 804bd1d:	85 c0                	test   %eax,%eax
 804bd1f:	75 0c                	jne    804bd2d <GAThread::allocnewold()+0x53>
 804bd21:	c7 04 24 0d ef 04 08 	movl   $0x804ef0d,(%esp)
 804bd28:	e8 b7 dc ff ff       	call   80499e4 <nomemory(char const*)>
 804bd2d:	8b 45 08             	mov    0x8(%ebp),%eax
 804bd30:	8b 00                	mov    (%eax),%eax
 804bd32:	69 c0 94 00 00 00    	imul   $0x94,%eax,%eax
 804bd38:	89 04 24             	mov    %eax,(%esp)
 804bd3b:	e8 a0 d0 ff ff       	call   8048de0 <malloc@plt>
 804bd40:	89 c2                	mov    %eax,%edx
 804bd42:	8b 45 08             	mov    0x8(%ebp),%eax
 804bd45:	89 90 10 12 00 00    	mov    %edx,0x1210(%eax)
 804bd4b:	8b 45 08             	mov    0x8(%ebp),%eax
 804bd4e:	8b 80 10 12 00 00    	mov    0x1210(%eax),%eax
 804bd54:	85 c0                	test   %eax,%eax
 804bd56:	75 0c                	jne    804bd64 <GAThread::allocnewold()+0x8a>
 804bd58:	c7 04 24 25 ef 04 08 	movl   $0x804ef25,(%esp)
 804bd5f:	e8 80 dc ff ff       	call   80499e4 <nomemory(char const*)>
 804bd64:	8b 45 08             	mov    0x8(%ebp),%eax
 804bd67:	8b 40 24             	mov    0x24(%eax),%eax
 804bd6a:	c1 e0 02             	shl    $0x2,%eax
 804bd6d:	89 45 d4             	mov    %eax,-0x2c(%ebp)
 804bd70:	c7 45 e4 00 00 00 00 	movl   $0x0,-0x1c(%ebp)
 804bd77:	e9 0a 01 00 00       	jmp    804be86 <GAThread::allocnewold()+0x1ac>
 804bd7c:	8b 45 08             	mov    0x8(%ebp),%eax
 804bd7f:	8b 90 0c 12 00 00    	mov    0x120c(%eax),%edx
 804bd85:	8b 45 e4             	mov    -0x1c(%ebp),%eax
 804bd88:	69 c0 94 00 00 00    	imul   $0x94,%eax,%eax
 804bd8e:	8d 1c 02             	lea    (%edx,%eax,1),%ebx
 804bd91:	8b 45 d4             	mov    -0x2c(%ebp),%eax
 804bd94:	89 04 24             	mov    %eax,(%esp)
 804bd97:	e8 44 d0 ff ff       	call   8048de0 <malloc@plt>
 804bd9c:	89 83 80 00 00 00    	mov    %eax,0x80(%ebx)
 804bda2:	8b 83 80 00 00 00    	mov    0x80(%ebx),%eax
 804bda8:	85 c0                	test   %eax,%eax
 804bdaa:	0f 94 c0             	sete   %al
 804bdad:	84 c0                	test   %al,%al
 804bdaf:	74 0c                	je     804bdbd <GAThread::allocnewold()+0xe3>
 804bdb1:	c7 04 24 3d ef 04 08 	movl   $0x804ef3d,(%esp)
 804bdb8:	e8 27 dc ff ff       	call   80499e4 <nomemory(char const*)>
 804bdbd:	8b 45 08             	mov    0x8(%ebp),%eax
 804bdc0:	8b 90 10 12 00 00    	mov    0x1210(%eax),%edx
 804bdc6:	8b 45 e4             	mov    -0x1c(%ebp),%eax
 804bdc9:	69 c0 94 00 00 00    	imul   $0x94,%eax,%eax
 804bdcf:	8d 1c 02             	lea    (%edx,%eax,1),%ebx
 804bdd2:	8b 45 d4             	mov    -0x2c(%ebp),%eax
 804bdd5:	89 04 24             	mov    %eax,(%esp)
 804bdd8:	e8 03 d0 ff ff       	call   8048de0 <malloc@plt>
 804bddd:	89 83 80 00 00 00    	mov    %eax,0x80(%ebx)
 804bde3:	8b 83 80 00 00 00    	mov    0x80(%ebx),%eax
 804bde9:	85 c0                	test   %eax,%eax
 804bdeb:	0f 94 c0             	sete   %al
 804bdee:	84 c0                	test   %al,%al
 804bdf0:	74 0c                	je     804bdfe <GAThread::allocnewold()+0x124>
 804bdf2:	c7 04 24 50 ef 04 08 	movl   $0x804ef50,(%esp)
 804bdf9:	e8 e6 db ff ff       	call   80499e4 <nomemory(char const*)>
 804bdfe:	8b 45 08             	mov    0x8(%ebp),%eax
 804be01:	8b 90 0c 12 00 00    	mov    0x120c(%eax),%edx
 804be07:	8b 45 e4             	mov    -0x1c(%ebp),%eax
 804be0a:	69 c0 94 00 00 00    	imul   $0x94,%eax,%eax
 804be10:	8d 1c 02             	lea    (%edx,%eax,1),%ebx
 804be13:	c7 04 24 20 00 00 00 	movl   $0x20,(%esp)
 804be1a:	e8 c1 cf ff ff       	call   8048de0 <malloc@plt>
 804be1f:	89 83 84 00 00 00    	mov    %eax,0x84(%ebx)
 804be25:	8b 83 84 00 00 00    	mov    0x84(%ebx),%eax
 804be2b:	85 c0                	test   %eax,%eax
 804be2d:	0f 94 c0             	sete   %al
 804be30:	84 c0                	test   %al,%al
 804be32:	74 0c                	je     804be40 <GAThread::allocnewold()+0x166>
 804be34:	c7 04 24 63 ef 04 08 	movl   $0x804ef63,(%esp)
 804be3b:	e8 a4 db ff ff       	call   80499e4 <nomemory(char const*)>
 804be40:	8b 45 08             	mov    0x8(%ebp),%eax
 804be43:	8b 90 10 12 00 00    	mov    0x1210(%eax),%edx
 804be49:	8b 45 e4             	mov    -0x1c(%ebp),%eax
 804be4c:	69 c0 94 00 00 00    	imul   $0x94,%eax,%eax
 804be52:	8d 1c 02             	lea    (%edx,%eax,1),%ebx
 804be55:	c7 04 24 20 00 00 00 	movl   $0x20,(%esp)
 804be5c:	e8 7f cf ff ff       	call   8048de0 <malloc@plt>
 804be61:	89 83 84 00 00 00    	mov    %eax,0x84(%ebx)
 804be67:	8b 83 84 00 00 00    	mov    0x84(%ebx),%eax
 804be6d:	85 c0                	test   %eax,%eax
 804be6f:	0f 94 c0             	sete   %al
 804be72:	84 c0                	test   %al,%al
 804be74:	74 0c                	je     804be82 <GAThread::allocnewold()+0x1a8>
 804be76:	c7 04 24 72 ef 04 08 	movl   $0x804ef72,(%esp)
 804be7d:	e8 62 db ff ff       	call   80499e4 <nomemory(char const*)>
 804be82:	83 45 e4 01          	addl   $0x1,-0x1c(%ebp)
 804be86:	8b 45 08             	mov    0x8(%ebp),%eax
 804be89:	8b 00                	mov    (%eax),%eax
 804be8b:	3b 45 e4             	cmp    -0x1c(%ebp),%eax
 804be8e:	0f 8f e8 fe ff ff    	jg     804bd7c <GAThread::allocnewold()+0xa2>
 804be94:	8b 45 d4             	mov    -0x2c(%ebp),%eax
 804be97:	89 04 24             	mov    %eax,(%esp)
 804be9a:	e8 41 cf ff ff       	call   8048de0 <malloc@plt>
 804be9f:	89 c2                	mov    %eax,%edx
 804bea1:	8b 45 08             	mov    0x8(%ebp),%eax
 804bea4:	89 90 94 12 00 00    	mov    %edx,0x1294(%eax)
 804beaa:	8b 45 08             	mov    0x8(%ebp),%eax
 804bead:	8b 80 94 12 00 00    	mov    0x1294(%eax),%eax
 804beb3:	85 c0                	test   %eax,%eax
 804beb5:	0f 94 c0             	sete   %al
 804beb8:	84 c0                	test   %al,%al
 804beba:	74 0c                	je     804bec8 <GAThread::allocnewold()+0x1ee>
 804bebc:	c7 04 24 d9 ed 04 08 	movl   $0x804edd9,(%esp)
 804bec3:	e8 1c db ff ff       	call   80499e4 <nomemory(char const*)>
 804bec8:	c7 04 24 20 00 00 00 	movl   $0x20,(%esp)
 804becf:	e8 0c cf ff ff       	call   8048de0 <malloc@plt>
 804bed4:	89 c2                	mov    %eax,%edx
 804bed6:	8b 45 08             	mov    0x8(%ebp),%eax
 804bed9:	89 90 98 12 00 00    	mov    %edx,0x1298(%eax)
 804bedf:	8b 45 08             	mov    0x8(%ebp),%eax
 804bee2:	8b 80 98 12 00 00    	mov    0x1298(%eax),%eax
 804bee8:	85 c0                	test   %eax,%eax
 804beea:	0f 94 c0             	sete   %al
 804beed:	84 c0                	test   %al,%al
 804beef:	74 0c                	je     804befd <GAThread::allocnewold()+0x223>
 804bef1:	c7 04 24 81 ef 04 08 	movl   $0x804ef81,(%esp)
 804bef8:	e8 e7 da ff ff       	call   80499e4 <nomemory(char const*)>
 804befd:	8b 45 08             	mov    0x8(%ebp),%eax
 804bf00:	c7 40 10 00 00 00 00 	movl   $0x0,0x10(%eax)
 804bf07:	8b 45 08             	mov    0x8(%ebp),%eax
 804bf0a:	8b 50 10             	mov    0x10(%eax),%edx
 804bf0d:	8b 45 08             	mov    0x8(%ebp),%eax
 804bf10:	89 50 0c             	mov    %edx,0xc(%eax)
 804bf13:	81 c4 34 01 00 00    	add    $0x134,%esp
 804bf19:	5b                   	pop    %ebx
 804bf1a:	5d                   	pop    %ebp
 804bf1b:	c3                   	ret    

0804bf1c <GAThread::ThreadFunction(void*)>:
 804bf1c:	55                   	push   %ebp
 804bf1d:	89 e5                	mov    %esp,%ebp
 804bf1f:	53                   	push   %ebx
 804bf20:	83 ec 44             	sub    $0x44,%esp
 804bf23:	c7 45 ec 01 00 00 00 	movl   $0x1,-0x14(%ebp)
 804bf2a:	8b 45 08             	mov    0x8(%ebp),%eax
 804bf2d:	89 45 e8             	mov    %eax,-0x18(%ebp)
 804bf30:	8b 45 e8             	mov    -0x18(%ebp),%eax
 804bf33:	c7 40 04 00 00 00 00 	movl   $0x0,0x4(%eax)
 804bf3a:	8b 45 e8             	mov    -0x18(%ebp),%eax
 804bf3d:	89 04 24             	mov    %eax,(%esp)
 804bf40:	e8 95 fd ff ff       	call   804bcda <GAThread::allocnewold()>
 804bf45:	c7 45 f4 00 00 00 00 	movl   $0x0,-0xc(%ebp)
 804bf4c:	eb 16                	jmp    804bf64 <GAThread::ThreadFunction(void*)+0x48>
 804bf4e:	8b 4d f4             	mov    -0xc(%ebp),%ecx
 804bf51:	8b 55 e8             	mov    -0x18(%ebp),%edx
 804bf54:	b8 00 00 00 00       	mov    $0x0,%eax
 804bf59:	89 84 8a a8 12 00 00 	mov    %eax,0x12a8(%edx,%ecx,4)
 804bf60:	83 45 f4 01          	addl   $0x1,-0xc(%ebp)
 804bf64:	8b 45 e8             	mov    -0x18(%ebp),%eax
 804bf67:	8b 40 08             	mov    0x8(%eax),%eax
 804bf6a:	3b 45 f4             	cmp    -0xc(%ebp),%eax
 804bf6d:	7f df                	jg     804bf4e <GAThread::ThreadFunction(void*)+0x32>
 804bf6f:	c7 04 24 bc 07 05 08 	movl   $0x80507bc,(%esp)
 804bf76:	e8 75 ce ff ff       	call   8048df0 <pthread_mutex_lock@plt>
 804bf7b:	8b 45 e8             	mov    -0x18(%ebp),%eax
 804bf7e:	8b 40 24             	mov    0x24(%eax),%eax
 804bf81:	8b 55 e8             	mov    -0x18(%ebp),%edx
 804bf84:	81 c2 14 12 00 00    	add    $0x1214,%edx
 804bf8a:	8b 0d 04 07 05 08    	mov    0x8050704,%ecx
 804bf90:	89 44 24 08          	mov    %eax,0x8(%esp)
 804bf94:	89 54 24 04          	mov    %edx,0x4(%esp)
 804bf98:	89 0c 24             	mov    %ecx,(%esp)
 804bf9b:	e8 2c d9 ff ff       	call   80498cc <copy_individual(indiv*, indiv*, int)>
 804bfa0:	8b 45 e8             	mov    -0x18(%ebp),%eax
 804bfa3:	8b 90 98 12 00 00    	mov    0x1298(%eax),%edx
 804bfa9:	8b 45 e8             	mov    -0x18(%ebp),%eax
 804bfac:	8b 80 94 12 00 00    	mov    0x1294(%eax),%eax
 804bfb2:	89 54 24 08          	mov    %edx,0x8(%esp)
 804bfb6:	89 44 24 04          	mov    %eax,0x4(%esp)
 804bfba:	8b 45 e8             	mov    -0x18(%ebp),%eax
 804bfbd:	89 04 24             	mov    %eax,(%esp)
 804bfc0:	e8 2f 17 00 00       	call   804d6f4 <GAThread::objectivenew(unsigned int*, float*)>
 804bfc5:	8b 45 e8             	mov    -0x18(%ebp),%eax
 804bfc8:	d9 98 8c 12 00 00    	fstps  0x128c(%eax)
 804bfce:	c7 04 24 bc 07 05 08 	movl   $0x80507bc,(%esp)
 804bfd5:	e8 36 cd ff ff       	call   8048d10 <pthread_mutex_unlock@plt>
 804bfda:	8b 45 e8             	mov    -0x18(%ebp),%eax
 804bfdd:	8b 90 8c 12 00 00    	mov    0x128c(%eax),%edx
 804bfe3:	8b 45 e8             	mov    -0x18(%ebp),%eax
 804bfe6:	89 90 90 12 00 00    	mov    %edx,0x1290(%eax)
 804bfec:	8b 45 e8             	mov    -0x18(%ebp),%eax
 804bfef:	c7 40 04 01 00 00 00 	movl   $0x1,0x4(%eax)
 804bff6:	e9 f7 01 00 00       	jmp    804c1f2 <GAThread::ThreadFunction(void*)+0x2d6>
 804bffb:	c7 45 f4 00 00 00 00 	movl   $0x0,-0xc(%ebp)
 804c002:	e9 a0 00 00 00       	jmp    804c0a7 <GAThread::ThreadFunction(void*)+0x18b>
 804c007:	a1 b4 07 05 08       	mov    0x80507b4,%eax
 804c00c:	83 e8 01             	sub    $0x1,%eax
 804c00f:	89 44 24 08          	mov    %eax,0x8(%esp)
 804c013:	c7 44 24 04 00 00 00 	movl   $0x0,0x4(%esp)
 804c01a:	00 
 804c01b:	8b 45 e8             	mov    -0x18(%ebp),%eax
 804c01e:	89 04 24             	mov    %eax,(%esp)
 804c021:	e8 b2 10 00 00       	call   804d0d8 <GAThread::rnd(int, int)>
 804c026:	89 45 f0             	mov    %eax,-0x10(%ebp)
 804c029:	8b 55 f0             	mov    -0x10(%ebp),%edx
 804c02c:	89 d0                	mov    %edx,%eax
 804c02e:	01 c0                	add    %eax,%eax
 804c030:	01 d0                	add    %edx,%eax
 804c032:	c1 e0 03             	shl    $0x3,%eax
 804c035:	89 c2                	mov    %eax,%edx
 804c037:	a1 b8 07 05 08       	mov    0x80507b8,%eax
 804c03c:	8d 04 02             	lea    (%edx,%eax,1),%eax
 804c03f:	89 04 24             	mov    %eax,(%esp)
 804c042:	e8 a9 cd ff ff       	call   8048df0 <pthread_mutex_lock@plt>
 804c047:	8b 45 e8             	mov    -0x18(%ebp),%eax
 804c04a:	8b 58 24             	mov    0x24(%eax),%ebx
 804c04d:	8b 45 e8             	mov    -0x18(%ebp),%eax
 804c050:	8b 90 0c 12 00 00    	mov    0x120c(%eax),%edx
 804c056:	8b 45 f4             	mov    -0xc(%ebp),%eax
 804c059:	69 c0 94 00 00 00    	imul   $0x94,%eax,%eax
 804c05f:	8d 0c 02             	lea    (%edx,%eax,1),%ecx
 804c062:	8b 45 f0             	mov    -0x10(%ebp),%eax
 804c065:	69 c0 94 00 00 00    	imul   $0x94,%eax,%eax
 804c06b:	89 c2                	mov    %eax,%edx
 804c06d:	a1 04 07 05 08       	mov    0x8050704,%eax
 804c072:	8d 04 02             	lea    (%edx,%eax,1),%eax
 804c075:	89 5c 24 08          	mov    %ebx,0x8(%esp)
 804c079:	89 4c 24 04          	mov    %ecx,0x4(%esp)
 804c07d:	89 04 24             	mov    %eax,(%esp)
 804c080:	e8 47 d8 ff ff       	call   80498cc <copy_individual(indiv*, indiv*, int)>
 804c085:	8b 55 f0             	mov    -0x10(%ebp),%edx
 804c088:	89 d0                	mov    %edx,%eax
 804c08a:	01 c0                	add    %eax,%eax
 804c08c:	01 d0                	add    %edx,%eax
 804c08e:	c1 e0 03             	shl    $0x3,%eax
 804c091:	89 c2                	mov    %eax,%edx
 804c093:	a1 b8 07 05 08       	mov    0x80507b8,%eax
 804c098:	8d 04 02             	lea    (%edx,%eax,1),%eax
 804c09b:	89 04 24             	mov    %eax,(%esp)
 804c09e:	e8 6d cc ff ff       	call   8048d10 <pthread_mutex_unlock@plt>
 804c0a3:	83 45 f4 01          	addl   $0x1,-0xc(%ebp)
 804c0a7:	8b 45 e8             	mov    -0x18(%ebp),%eax
 804c0aa:	8b 00                	mov    (%eax),%eax
 804c0ac:	3b 45 f4             	cmp    -0xc(%ebp),%eax
 804c0af:	0f 8f 52 ff ff ff    	jg     804c007 <GAThread::ThreadFunction(void*)+0xeb>
 804c0b5:	8b 45 e8             	mov    -0x18(%ebp),%eax
 804c0b8:	89 04 24             	mov    %eax,(%esp)
 804c0bb:	e8 c2 fa ff ff       	call   804bb82 <GAThread::generate_new_pop()>
 804c0c0:	8b 45 e8             	mov    -0x18(%ebp),%eax
 804c0c3:	8b 40 04             	mov    0x4(%eax),%eax
 804c0c6:	89 44 24 04          	mov    %eax,0x4(%esp)
 804c0ca:	8b 45 e8             	mov    -0x18(%ebp),%eax
 804c0cd:	89 04 24             	mov    %eax,(%esp)
 804c0d0:	e8 dd e4 ff ff       	call   804a5b2 <GAThread::statistics(int)>
 804c0d5:	c7 45 f4 00 00 00 00 	movl   $0x0,-0xc(%ebp)
 804c0dc:	e9 f4 00 00 00       	jmp    804c1d5 <GAThread::ThreadFunction(void*)+0x2b9>
 804c0e1:	8b 45 e8             	mov    -0x18(%ebp),%eax
 804c0e4:	8b 90 4c 22 00 00    	mov    0x224c(%eax),%edx
 804c0ea:	8b 45 e8             	mov    -0x18(%ebp),%eax
 804c0ed:	8b 00                	mov    (%eax),%eax
 804c0ef:	0f af c2             	imul   %edx,%eax
 804c0f2:	03 45 f4             	add    -0xc(%ebp),%eax
 804c0f5:	89 45 f0             	mov    %eax,-0x10(%ebp)
 804c0f8:	8b 55 f0             	mov    -0x10(%ebp),%edx
 804c0fb:	89 d0                	mov    %edx,%eax
 804c0fd:	01 c0                	add    %eax,%eax
 804c0ff:	01 d0                	add    %edx,%eax
 804c101:	c1 e0 03             	shl    $0x3,%eax
 804c104:	89 c2                	mov    %eax,%edx
 804c106:	a1 b8 07 05 08       	mov    0x80507b8,%eax
 804c10b:	8d 04 02             	lea    (%edx,%eax,1),%eax
 804c10e:	89 04 24             	mov    %eax,(%esp)
 804c111:	e8 da cc ff ff       	call   8048df0 <pthread_mutex_lock@plt>
 804c116:	8b 45 e8             	mov    -0x18(%ebp),%eax
 804c119:	8b 80 fc 0f 00 00    	mov    0xffc(%eax),%eax
 804c11f:	50                   	push   %eax
 804c120:	db 04 24             	fildl  (%esp)
 804c123:	8d 64 24 04          	lea    0x4(%esp),%esp
 804c127:	8b 45 f0             	mov    -0x10(%ebp),%eax
 804c12a:	69 c0 94 00 00 00    	imul   $0x94,%eax,%eax
 804c130:	89 c2                	mov    %eax,%edx
 804c132:	a1 04 07 05 08       	mov    0x8050704,%eax
 804c137:	8d 04 02             	lea    (%edx,%eax,1),%eax
 804c13a:	d9 40 78             	flds   0x78(%eax)
 804c13d:	de c9                	fmulp  %st,%st(1)
 804c13f:	8b 45 e8             	mov    -0x18(%ebp),%eax
 804c142:	8b 80 fc 0f 00 00    	mov    0xffc(%eax),%eax
 804c148:	50                   	push   %eax
 804c149:	db 04 24             	fildl  (%esp)
 804c14c:	8d 64 24 04          	lea    0x4(%esp),%esp
 804c150:	8b 45 e8             	mov    -0x18(%ebp),%eax
 804c153:	8b 90 10 12 00 00    	mov    0x1210(%eax),%edx
 804c159:	8b 45 f4             	mov    -0xc(%ebp),%eax
 804c15c:	69 c0 94 00 00 00    	imul   $0x94,%eax,%eax
 804c162:	8d 04 02             	lea    (%edx,%eax,1),%eax
 804c165:	d9 40 78             	flds   0x78(%eax)
 804c168:	de c9                	fmulp  %st,%st(1)
 804c16a:	d9 c9                	fxch   %st(1)
 804c16c:	da e9                	fucompp 
 804c16e:	df e0                	fnstsw %ax
 804c170:	9e                   	sahf   
 804c171:	77 02                	ja     804c175 <GAThread::ThreadFunction(void*)+0x259>
 804c173:	eb 3e                	jmp    804c1b3 <GAThread::ThreadFunction(void*)+0x297>
 804c175:	8b 45 e8             	mov    -0x18(%ebp),%eax
 804c178:	8b 58 24             	mov    0x24(%eax),%ebx
 804c17b:	8b 45 f0             	mov    -0x10(%ebp),%eax
 804c17e:	69 c0 94 00 00 00    	imul   $0x94,%eax,%eax
 804c184:	89 c2                	mov    %eax,%edx
 804c186:	a1 04 07 05 08       	mov    0x8050704,%eax
 804c18b:	8d 0c 02             	lea    (%edx,%eax,1),%ecx
 804c18e:	8b 45 e8             	mov    -0x18(%ebp),%eax
 804c191:	8b 90 10 12 00 00    	mov    0x1210(%eax),%edx
 804c197:	8b 45 f4             	mov    -0xc(%ebp),%eax
 804c19a:	69 c0 94 00 00 00    	imul   $0x94,%eax,%eax
 804c1a0:	8d 04 02             	lea    (%edx,%eax,1),%eax
 804c1a3:	89 5c 24 08          	mov    %ebx,0x8(%esp)
 804c1a7:	89 4c 24 04          	mov    %ecx,0x4(%esp)
 804c1ab:	89 04 24             	mov    %eax,(%esp)
 804c1ae:	e8 19 d7 ff ff       	call   80498cc <copy_individual(indiv*, indiv*, int)>
 804c1b3:	8b 55 f0             	mov    -0x10(%ebp),%edx
 804c1b6:	89 d0                	mov    %edx,%eax
 804c1b8:	01 c0                	add    %eax,%eax
 804c1ba:	01 d0                	add    %edx,%eax
 804c1bc:	c1 e0 03             	shl    $0x3,%eax
 804c1bf:	89 c2                	mov    %eax,%edx
 804c1c1:	a1 b8 07 05 08       	mov    0x80507b8,%eax
 804c1c6:	8d 04 02             	lea    (%edx,%eax,1),%eax
 804c1c9:	89 04 24             	mov    %eax,(%esp)
 804c1cc:	e8 3f cb ff ff       	call   8048d10 <pthread_mutex_unlock@plt>
 804c1d1:	83 45 f4 01          	addl   $0x1,-0xc(%ebp)
 804c1d5:	8b 45 e8             	mov    -0x18(%ebp),%eax
 804c1d8:	8b 00                	mov    (%eax),%eax
 804c1da:	3b 45 f4             	cmp    -0xc(%ebp),%eax
 804c1dd:	0f 8f fe fe ff ff    	jg     804c0e1 <GAThread::ThreadFunction(void*)+0x1c5>
 804c1e3:	8b 45 e8             	mov    -0x18(%ebp),%eax
 804c1e6:	8b 40 04             	mov    0x4(%eax),%eax
 804c1e9:	8d 50 01             	lea    0x1(%eax),%edx
 804c1ec:	8b 45 e8             	mov    -0x18(%ebp),%eax
 804c1ef:	89 50 04             	mov    %edx,0x4(%eax)
 804c1f2:	8b 45 e8             	mov    -0x18(%ebp),%eax
 804c1f5:	8b 50 04             	mov    0x4(%eax),%edx
 804c1f8:	8b 45 e8             	mov    -0x18(%ebp),%eax
 804c1fb:	8b 40 08             	mov    0x8(%eax),%eax
 804c1fe:	39 c2                	cmp    %eax,%edx
 804c200:	0f 8e f5 fd ff ff    	jle    804bffb <GAThread::ThreadFunction(void*)+0xdf>
 804c206:	c7 04 24 bc 07 05 08 	movl   $0x80507bc,(%esp)
 804c20d:	e8 de cb ff ff       	call   8048df0 <pthread_mutex_lock@plt>
 804c212:	8b 45 e8             	mov    -0x18(%ebp),%eax
 804c215:	8b 98 4c 22 00 00    	mov    0x224c(%eax),%ebx
 804c21b:	c7 44 24 04 93 ef 04 	movl   $0x804ef93,0x4(%esp)
 804c222:	08 
 804c223:	c7 04 24 e0 03 05 08 	movl   $0x80503e0,(%esp)
 804c22a:	e8 a1 ca ff ff       	call   8048cd0 <std::basic_ostream<char, std::char_traits<char> >& std::operator<< <std::char_traits<char> >(std::basic_ostream<char, std::char_traits<char> >&, char const*)@plt>
 804c22f:	89 5c 24 04          	mov    %ebx,0x4(%esp)
 804c233:	89 04 24             	mov    %eax,(%esp)
 804c236:	e8 a5 c9 ff ff       	call   8048be0 <std::ostream::operator<<(int)@plt>
 804c23b:	c7 44 24 04 0a 00 00 	movl   $0xa,0x4(%esp)
 804c242:	00 
 804c243:	89 04 24             	mov    %eax,(%esp)
 804c246:	e8 65 ca ff ff       	call   8048cb0 <std::basic_ostream<char, std::char_traits<char> >& std::operator<< <std::char_traits<char> >(std::basic_ostream<char, std::char_traits<char> >&, char)@plt>
 804c24b:	c7 04 24 a0 ef 04 08 	movl   $0x804efa0,(%esp)
 804c252:	e8 19 cb ff ff       	call   8048d70 <printf@plt>
 804c257:	8b 45 e8             	mov    -0x18(%ebp),%eax
 804c25a:	d9 80 1c 10 00 00    	flds   0x101c(%eax)
 804c260:	8b 45 e8             	mov    -0x18(%ebp),%eax
 804c263:	d9 80 24 10 00 00    	flds   0x1024(%eax)
 804c269:	8b 45 e8             	mov    -0x18(%ebp),%eax
 804c26c:	d9 80 20 10 00 00    	flds   0x1020(%eax)
 804c272:	d9 ca                	fxch   %st(2)
 804c274:	dd 5c 24 14          	fstpl  0x14(%esp)
 804c278:	dd 5c 24 0c          	fstpl  0xc(%esp)
 804c27c:	dd 5c 24 04          	fstpl  0x4(%esp)
 804c280:	c7 04 24 d8 ef 04 08 	movl   $0x804efd8,(%esp)
 804c287:	e8 e4 ca ff ff       	call   8048d70 <printf@plt>
 804c28c:	8b 45 e8             	mov    -0x18(%ebp),%eax
 804c28f:	8b 50 0c             	mov    0xc(%eax),%edx
 804c292:	8b 45 e8             	mov    -0x18(%ebp),%eax
 804c295:	8b 40 10             	mov    0x10(%eax),%eax
 804c298:	89 54 24 08          	mov    %edx,0x8(%esp)
 804c29c:	89 44 24 04          	mov    %eax,0x4(%esp)
 804c2a0:	c7 04 24 00 f0 04 08 	movl   $0x804f000,(%esp)
 804c2a7:	e8 c4 ca ff ff       	call   8048d70 <printf@plt>
 804c2ac:	8b 45 e8             	mov    -0x18(%ebp),%eax
 804c2af:	8b 40 1c             	mov    0x1c(%eax),%eax
 804c2b2:	85 c0                	test   %eax,%eax
 804c2b4:	0f 84 dd 00 00 00    	je     804c397 <GAThread::ThreadFunction(void*)+0x47b>
 804c2ba:	8b 45 e8             	mov    -0x18(%ebp),%eax
 804c2bd:	8b 80 94 12 00 00    	mov    0x1294(%eax),%eax
 804c2c3:	8b 00                	mov    (%eax),%eax
 804c2c5:	89 45 e4             	mov    %eax,-0x1c(%ebp)
 804c2c8:	8b 45 ec             	mov    -0x14(%ebp),%eax
 804c2cb:	89 c2                	mov    %eax,%edx
 804c2cd:	23 55 e4             	and    -0x1c(%ebp),%edx
 804c2d0:	8b 45 ec             	mov    -0x14(%ebp),%eax
 804c2d3:	01 c0                	add    %eax,%eax
 804c2d5:	23 45 e4             	and    -0x1c(%ebp),%eax
 804c2d8:	01 c2                	add    %eax,%edx
 804c2da:	8b 45 ec             	mov    -0x14(%ebp),%eax
 804c2dd:	c1 e0 02             	shl    $0x2,%eax
 804c2e0:	23 45 e4             	and    -0x1c(%ebp),%eax
 804c2e3:	8d 04 02             	lea    (%edx,%eax,1),%eax
 804c2e6:	83 c0 01             	add    $0x1,%eax
 804c2e9:	89 45 e0             	mov    %eax,-0x20(%ebp)
 804c2ec:	8b 45 e0             	mov    -0x20(%ebp),%eax
 804c2ef:	89 44 24 04          	mov    %eax,0x4(%esp)
 804c2f3:	c7 04 24 2e f0 04 08 	movl   $0x804f02e,(%esp)
 804c2fa:	e8 71 ca ff ff       	call   8048d70 <printf@plt>
 804c2ff:	c7 04 24 48 f0 04 08 	movl   $0x804f048,(%esp)
 804c306:	e8 45 cb ff ff       	call   8048e50 <puts@plt>
 804c30b:	8b 45 e8             	mov    -0x18(%ebp),%eax
 804c30e:	8b 90 98 12 00 00    	mov    0x1298(%eax),%edx
 804c314:	8b 45 e8             	mov    -0x18(%ebp),%eax
 804c317:	8b 80 94 12 00 00    	mov    0x1294(%eax),%eax
 804c31d:	89 54 24 04          	mov    %edx,0x4(%esp)
 804c321:	89 04 24             	mov    %eax,(%esp)
 804c324:	e8 e7 db ff ff       	call   8049f10 <writechrom1(unsigned int*, float*)>
 804c329:	8b 45 e8             	mov    -0x18(%ebp),%eax
 804c32c:	8b 50 14             	mov    0x14(%eax),%edx
 804c32f:	8b 45 e8             	mov    -0x18(%ebp),%eax
 804c332:	d9 80 8c 12 00 00    	flds   0x128c(%eax)
 804c338:	89 54 24 0c          	mov    %edx,0xc(%esp)
 804c33c:	dd 5c 24 04          	fstpl  0x4(%esp)
 804c340:	c7 04 24 54 f0 04 08 	movl   $0x804f054,(%esp)
 804c347:	e8 24 ca ff ff       	call   8048d70 <printf@plt>
 804c34c:	8b 45 e8             	mov    -0x18(%ebp),%eax
 804c34f:	8b 40 08             	mov    0x8(%eax),%eax
 804c352:	89 44 24 04          	mov    %eax,0x4(%esp)
 804c356:	c7 04 24 82 f0 04 08 	movl   $0x804f082,(%esp)
 804c35d:	e8 0e ca ff ff       	call   8048d70 <printf@plt>
 804c362:	c7 45 dc 00 00 00 00 	movl   $0x0,-0x24(%ebp)
 804c369:	eb 21                	jmp    804c38c <GAThread::ThreadFunction(void*)+0x470>
 804c36b:	8b 55 dc             	mov    -0x24(%ebp),%edx
 804c36e:	8b 45 e8             	mov    -0x18(%ebp),%eax
 804c371:	d9 84 90 a8 12 00 00 	flds   0x12a8(%eax,%edx,4)
 804c378:	dd 5c 24 04          	fstpl  0x4(%esp)
 804c37c:	c7 04 24 9b f0 04 08 	movl   $0x804f09b,(%esp)
 804c383:	e8 e8 c9 ff ff       	call   8048d70 <printf@plt>
 804c388:	83 45 dc 01          	addl   $0x1,-0x24(%ebp)
 804c38c:	8b 45 e8             	mov    -0x18(%ebp),%eax
 804c38f:	8b 40 08             	mov    0x8(%eax),%eax
 804c392:	3b 45 dc             	cmp    -0x24(%ebp),%eax
 804c395:	7d d4                	jge    804c36b <GAThread::ThreadFunction(void*)+0x44f>
 804c397:	c7 04 24 a0 ef 04 08 	movl   $0x804efa0,(%esp)
 804c39e:	e8 cd c9 ff ff       	call   8048d70 <printf@plt>
 804c3a3:	c7 04 24 a0 f0 04 08 	movl   $0x804f0a0,(%esp)
 804c3aa:	e8 a1 ca ff ff       	call   8048e50 <puts@plt>
 804c3af:	8b 45 e8             	mov    -0x18(%ebp),%eax
 804c3b2:	89 04 24             	mov    %eax,(%esp)
 804c3b5:	e8 1c d1 ff ff       	call   80494d6 <GAThread::free_all()>
 804c3ba:	c7 04 24 bc 07 05 08 	movl   $0x80507bc,(%esp)
 804c3c1:	e8 4a c9 ff ff       	call   8048d10 <pthread_mutex_unlock@plt>
 804c3c6:	83 c4 44             	add    $0x44,%esp
 804c3c9:	5b                   	pop    %ebx
 804c3ca:	5d                   	pop    %ebp
 804c3cb:	c3                   	ret    

0804c3cc <ignore_comment()>:
 804c3cc:	55                   	push   %ebp
 804c3cd:	89 e5                	mov    %esp,%ebp
 804c3cf:	83 ec 08             	sub    $0x8,%esp
 804c3d2:	a1 c0 04 05 08       	mov    0x80504c0,%eax
 804c3d7:	85 c0                	test   %eax,%eax
 804c3d9:	74 0f                	je     804c3ea <ignore_comment()+0x1e>
 804c3db:	e8 40 c8 ff ff       	call   8048c20 <getchar@plt>
 804c3e0:	83 f8 3a             	cmp    $0x3a,%eax
 804c3e3:	0f 95 c0             	setne  %al
 804c3e6:	84 c0                	test   %al,%al
 804c3e8:	75 f1                	jne    804c3db <ignore_comment()+0xf>
 804c3ea:	c9                   	leave  
 804c3eb:	c3                   	ret    

0804c3ec <input_parameters()>:
 804c3ec:	55                   	push   %ebp
 804c3ed:	89 e5                	mov    %esp,%ebp
 804c3ef:	53                   	push   %ebx
 804c3f0:	83 ec 34             	sub    $0x34,%esp
 804c3f3:	e8 28 c8 ff ff       	call   8048c20 <getchar@plt>
 804c3f8:	88 45 fb             	mov    %al,-0x5(%ebp)
 804c3fb:	80 7d fb 79          	cmpb   $0x79,-0x5(%ebp)
 804c3ff:	74 06                	je     804c407 <input_parameters()+0x1b>
 804c401:	80 7d fb 6e          	cmpb   $0x6e,-0x5(%ebp)
 804c405:	75 ec                	jne    804c3f3 <input_parameters()+0x7>
 804c407:	80 7d fb 79          	cmpb   $0x79,-0x5(%ebp)
 804c40b:	75 0c                	jne    804c419 <input_parameters()+0x2d>
 804c40d:	c7 05 c0 04 05 08 01 	movl   $0x1,0x80504c0
 804c414:	00 00 00 
 804c417:	eb 0a                	jmp    804c423 <input_parameters()+0x37>
 804c419:	c7 05 c0 04 05 08 00 	movl   $0x0,0x80504c0
 804c420:	00 00 00 
 804c423:	a1 c0 04 05 08       	mov    0x80504c0,%eax
 804c428:	85 c0                	test   %eax,%eax
 804c42a:	74 0c                	je     804c438 <input_parameters()+0x4c>
 804c42c:	c7 04 24 a4 f0 04 08 	movl   $0x804f0a4,(%esp)
 804c433:	e8 38 c9 ff ff       	call   8048d70 <printf@plt>
 804c438:	a1 c0 04 05 08       	mov    0x80504c0,%eax
 804c43d:	85 c0                	test   %eax,%eax
 804c43f:	75 0c                	jne    804c44d <input_parameters()+0x61>
 804c441:	c7 04 24 cc f0 04 08 	movl   $0x804f0cc,(%esp)
 804c448:	e8 23 c9 ff ff       	call   8048d70 <printf@plt>
 804c44d:	e8 7a ff ff ff       	call   804c3cc <ignore_comment()>
 804c452:	c7 44 24 04 84 04 05 	movl   $0x8050484,0x4(%esp)
 804c459:	08 
 804c45a:	c7 04 24 f5 f0 04 08 	movl   $0x804f0f5,(%esp)
 804c461:	e8 8a c8 ff ff       	call   8048cf0 <scanf@plt>
 804c466:	a1 c0 04 05 08       	mov    0x80504c0,%eax
 804c46b:	85 c0                	test   %eax,%eax
 804c46d:	75 0c                	jne    804c47b <input_parameters()+0x8f>
 804c46f:	c7 04 24 f8 f0 04 08 	movl   $0x804f0f8,(%esp)
 804c476:	e8 f5 c8 ff ff       	call   8048d70 <printf@plt>
 804c47b:	e8 4c ff ff ff       	call   804c3cc <ignore_comment()>
 804c480:	c7 44 24 04 80 04 05 	movl   $0x8050480,0x4(%esp)
 804c487:	08 
 804c488:	c7 04 24 f5 f0 04 08 	movl   $0x804f0f5,(%esp)
 804c48f:	e8 5c c8 ff ff       	call   8048cf0 <scanf@plt>
 804c494:	a1 80 04 05 08       	mov    0x8050480,%eax
 804c499:	3d e8 03 00 00       	cmp    $0x3e8,%eax
 804c49e:	7e 24                	jle    804c4c4 <input_parameters()+0xd8>
 804c4a0:	c7 04 24 24 f1 04 08 	movl   $0x804f124,(%esp)
 804c4a7:	e8 c4 c8 ff ff       	call   8048d70 <printf@plt>
 804c4ac:	c7 04 24 52 f1 04 08 	movl   $0x804f152,(%esp)
 804c4b3:	e8 b8 c8 ff ff       	call   8048d70 <printf@plt>
 804c4b8:	c7 04 24 ff ff ff ff 	movl   $0xffffffff,(%esp)
 804c4bf:	e8 dc c9 ff ff       	call   8048ea0 <exit@plt>
 804c4c4:	a1 c0 04 05 08       	mov    0x80504c0,%eax
 804c4c9:	85 c0                	test   %eax,%eax
 804c4cb:	75 0c                	jne    804c4d9 <input_parameters()+0xed>
 804c4cd:	c7 04 24 6c f1 04 08 	movl   $0x804f16c,(%esp)
 804c4d4:	e8 97 c8 ff ff       	call   8048d70 <printf@plt>
 804c4d9:	e8 ee fe ff ff       	call   804c3cc <ignore_comment()>
 804c4de:	c7 44 24 04 e0 04 05 	movl   $0x80504e0,0x4(%esp)
 804c4e5:	08 
 804c4e6:	c7 04 24 95 f1 04 08 	movl   $0x804f195,(%esp)
 804c4ed:	e8 fe c7 ff ff       	call   8048cf0 <scanf@plt>
 804c4f2:	a1 c0 04 05 08       	mov    0x80504c0,%eax
 804c4f7:	85 c0                	test   %eax,%eax
 804c4f9:	75 0c                	jne    804c507 <input_parameters()+0x11b>
 804c4fb:	c7 04 24 98 f1 04 08 	movl   $0x804f198,(%esp)
 804c502:	e8 69 c8 ff ff       	call   8048d70 <printf@plt>
 804c507:	e8 c0 fe ff ff       	call   804c3cc <ignore_comment()>
 804c50c:	c7 44 24 04 e4 04 05 	movl   $0x80504e4,0x4(%esp)
 804c513:	08 
 804c514:	c7 04 24 95 f1 04 08 	movl   $0x804f195,(%esp)
 804c51b:	e8 d0 c7 ff ff       	call   8048cf0 <scanf@plt>
 804c520:	a1 c0 04 05 08       	mov    0x80504c0,%eax
 804c525:	85 c0                	test   %eax,%eax
 804c527:	75 14                	jne    804c53d <input_parameters()+0x151>
 804c529:	c7 44 24 04 1e 00 00 	movl   $0x1e,0x4(%esp)
 804c530:	00 
 804c531:	c7 04 24 c4 f1 04 08 	movl   $0x804f1c4,(%esp)
 804c538:	e8 33 c8 ff ff       	call   8048d70 <printf@plt>
 804c53d:	e8 8a fe ff ff       	call   804c3cc <ignore_comment()>
 804c542:	c7 44 24 04 8c 04 05 	movl   $0x805048c,0x4(%esp)
 804c549:	08 
 804c54a:	c7 04 24 f5 f0 04 08 	movl   $0x804f0f5,(%esp)
 804c551:	e8 9a c7 ff ff       	call   8048cf0 <scanf@plt>
 804c556:	c7 05 bc 04 05 08 00 	movl   $0x0,0x80504bc
 804c55d:	00 00 00 
 804c560:	a1 bc 04 05 08       	mov    0x80504bc,%eax
 804c565:	a3 b8 04 05 08       	mov    %eax,0x80504b8
 804c56a:	a1 c0 04 05 08       	mov    0x80504c0,%eax
 804c56f:	85 c0                	test   %eax,%eax
 804c571:	75 0c                	jne    804c57f <input_parameters()+0x193>
 804c573:	c7 04 24 f0 f1 04 08 	movl   $0x804f1f0,(%esp)
 804c57a:	e8 f1 c7 ff ff       	call   8048d70 <printf@plt>
 804c57f:	e8 48 fe ff ff       	call   804c3cc <ignore_comment()>
 804c584:	e8 97 c6 ff ff       	call   8048c20 <getchar@plt>
 804c589:	88 45 fb             	mov    %al,-0x5(%ebp)
 804c58c:	80 7d fb 62          	cmpb   $0x62,-0x5(%ebp)
 804c590:	74 06                	je     804c598 <input_parameters()+0x1ac>
 804c592:	80 7d fb 72          	cmpb   $0x72,-0x5(%ebp)
 804c596:	75 ec                	jne    804c584 <input_parameters()+0x198>
 804c598:	80 7d fb 62          	cmpb   $0x62,-0x5(%ebp)
 804c59c:	75 0c                	jne    804c5aa <input_parameters()+0x1be>
 804c59e:	c7 05 b8 04 05 08 01 	movl   $0x1,0x80504b8
 804c5a5:	00 00 00 
 804c5a8:	eb 0a                	jmp    804c5b4 <input_parameters()+0x1c8>
 804c5aa:	c7 05 bc 04 05 08 01 	movl   $0x1,0x80504bc
 804c5b1:	00 00 00 
 804c5b4:	a1 b8 04 05 08       	mov    0x80504b8,%eax
 804c5b9:	85 c0                	test   %eax,%eax
 804c5bb:	74 0a                	je     804c5c7 <input_parameters()+0x1db>
 804c5bd:	a1 8c 04 05 08       	mov    0x805048c,%eax
 804c5c2:	a3 90 04 05 08       	mov    %eax,0x8050490
 804c5c7:	e8 00 fe ff ff       	call   804c3cc <ignore_comment()>
 804c5cc:	c7 45 f4 00 00 00 00 	movl   $0x0,-0xc(%ebp)
 804c5d3:	eb 4e                	jmp    804c623 <input_parameters()+0x237>
 804c5d5:	a1 c0 04 05 08       	mov    0x80504c0,%eax
 804c5da:	85 c0                	test   %eax,%eax
 804c5dc:	75 16                	jne    804c5f4 <input_parameters()+0x208>
 804c5de:	8b 45 f4             	mov    -0xc(%ebp),%eax
 804c5e1:	83 c0 01             	add    $0x1,%eax
 804c5e4:	89 44 24 04          	mov    %eax,0x4(%esp)
 804c5e8:	c7 04 24 38 f2 04 08 	movl   $0x804f238,(%esp)
 804c5ef:	e8 7c c7 ff ff       	call   8048d70 <printf@plt>
 804c5f4:	8b 45 f4             	mov    -0xc(%ebp),%eax
 804c5f7:	c1 e0 02             	shl    $0x2,%eax
 804c5fa:	8d 90 80 06 05 08    	lea    0x8050680(%eax),%edx
 804c600:	8b 45 f4             	mov    -0xc(%ebp),%eax
 804c603:	c1 e0 02             	shl    $0x2,%eax
 804c606:	05 00 06 05 08       	add    $0x8050600,%eax
 804c60b:	89 54 24 08          	mov    %edx,0x8(%esp)
 804c60f:	89 44 24 04          	mov    %eax,0x4(%esp)
 804c613:	c7 04 24 62 f2 04 08 	movl   $0x804f262,(%esp)
 804c61a:	e8 d1 c6 ff ff       	call   8048cf0 <scanf@plt>
 804c61f:	83 45 f4 01          	addl   $0x1,-0xc(%ebp)
 804c623:	a1 8c 04 05 08       	mov    0x805048c,%eax
 804c628:	83 e8 01             	sub    $0x1,%eax
 804c62b:	3b 45 f4             	cmp    -0xc(%ebp),%eax
 804c62e:	7d a5                	jge    804c5d5 <input_parameters()+0x1e9>
 804c630:	a1 bc 04 05 08       	mov    0x80504bc,%eax
 804c635:	85 c0                	test   %eax,%eax
 804c637:	74 4c                	je     804c685 <input_parameters()+0x299>
 804c639:	a1 c0 04 05 08       	mov    0x80504c0,%eax
 804c63e:	85 c0                	test   %eax,%eax
 804c640:	75 0c                	jne    804c64e <input_parameters()+0x262>
 804c642:	c7 04 24 68 f2 04 08 	movl   $0x804f268,(%esp)
 804c649:	e8 22 c7 ff ff       	call   8048d70 <printf@plt>
 804c64e:	e8 79 fd ff ff       	call   804c3cc <ignore_comment()>
 804c653:	e8 c8 c5 ff ff       	call   8048c20 <getchar@plt>
 804c658:	88 45 fb             	mov    %al,-0x5(%ebp)
 804c65b:	80 7d fb 79          	cmpb   $0x79,-0x5(%ebp)
 804c65f:	74 06                	je     804c667 <input_parameters()+0x27b>
 804c661:	80 7d fb 6e          	cmpb   $0x6e,-0x5(%ebp)
 804c665:	75 ec                	jne    804c653 <input_parameters()+0x267>
 804c667:	80 7d fb 79          	cmpb   $0x79,-0x5(%ebp)
 804c66b:	75 0c                	jne    804c679 <input_parameters()+0x28d>
 804c66d:	c7 05 b4 04 05 08 01 	movl   $0x1,0x80504b4
 804c674:	00 00 00 
 804c677:	eb 2c                	jmp    804c6a5 <input_parameters()+0x2b9>
 804c679:	c7 05 b4 04 05 08 00 	movl   $0x0,0x80504b4
 804c680:	00 00 00 
 804c683:	eb 20                	jmp    804c6a5 <input_parameters()+0x2b9>
 804c685:	a1 c0 04 05 08       	mov    0x80504c0,%eax
 804c68a:	85 c0                	test   %eax,%eax
 804c68c:	74 17                	je     804c6a5 <input_parameters()+0x2b9>
 804c68e:	e8 39 fd ff ff       	call   804c3cc <ignore_comment()>
 804c693:	e8 88 c5 ff ff       	call   8048c20 <getchar@plt>
 804c698:	88 45 fb             	mov    %al,-0x5(%ebp)
 804c69b:	c7 05 b4 04 05 08 01 	movl   $0x1,0x80504b4
 804c6a2:	00 00 00 
 804c6a5:	a1 b8 04 05 08       	mov    0x80504b8,%eax
 804c6aa:	85 c0                	test   %eax,%eax
 804c6ac:	74 30                	je     804c6de <input_parameters()+0x2f2>
 804c6ae:	a1 c0 04 05 08       	mov    0x80504c0,%eax
 804c6b3:	85 c0                	test   %eax,%eax
 804c6b5:	75 0c                	jne    804c6c3 <input_parameters()+0x2d7>
 804c6b7:	c7 04 24 8c f2 04 08 	movl   $0x804f28c,(%esp)
 804c6be:	e8 ad c6 ff ff       	call   8048d70 <printf@plt>
 804c6c3:	e8 04 fd ff ff       	call   804c3cc <ignore_comment()>
 804c6c8:	c7 44 24 04 94 04 05 	movl   $0x8050494,0x4(%esp)
 804c6cf:	08 
 804c6d0:	c7 04 24 f5 f0 04 08 	movl   $0x804f0f5,(%esp)
 804c6d7:	e8 14 c6 ff ff       	call   8048cf0 <scanf@plt>
 804c6dc:	eb 2c                	jmp    804c70a <input_parameters()+0x31e>
 804c6de:	a1 c0 04 05 08       	mov    0x80504c0,%eax
 804c6e3:	85 c0                	test   %eax,%eax
 804c6e5:	74 23                	je     804c70a <input_parameters()+0x31e>
 804c6e7:	e8 e0 fc ff ff       	call   804c3cc <ignore_comment()>
 804c6ec:	c7 44 24 04 94 04 05 	movl   $0x8050494,0x4(%esp)
 804c6f3:	08 
 804c6f4:	c7 04 24 f5 f0 04 08 	movl   $0x804f0f5,(%esp)
 804c6fb:	e8 f0 c5 ff ff       	call   8048cf0 <scanf@plt>
 804c700:	c7 05 94 04 05 08 00 	movl   $0x0,0x8050494
 804c707:	00 00 00 
 804c70a:	a1 c0 04 05 08       	mov    0x80504c0,%eax
 804c70f:	85 c0                	test   %eax,%eax
 804c711:	75 0c                	jne    804c71f <input_parameters()+0x333>
 804c713:	c7 04 24 cc f2 04 08 	movl   $0x804f2cc,(%esp)
 804c71a:	e8 51 c6 ff ff       	call   8048d70 <printf@plt>
 804c71f:	e8 a8 fc ff ff       	call   804c3cc <ignore_comment()>
 804c724:	e8 f7 c4 ff ff       	call   8048c20 <getchar@plt>
 804c729:	88 45 fb             	mov    %al,-0x5(%ebp)
 804c72c:	80 7d fb 79          	cmpb   $0x79,-0x5(%ebp)
 804c730:	74 06                	je     804c738 <input_parameters()+0x34c>
 804c732:	80 7d fb 6e          	cmpb   $0x6e,-0x5(%ebp)
 804c736:	75 ec                	jne    804c724 <input_parameters()+0x338>
 804c738:	80 7d fb 79          	cmpb   $0x79,-0x5(%ebp)
 804c73c:	75 35                	jne    804c773 <input_parameters()+0x387>
 804c73e:	c7 05 ac 04 05 08 01 	movl   $0x1,0x80504ac
 804c745:	00 00 00 
 804c748:	a1 c0 04 05 08       	mov    0x80504c0,%eax
 804c74d:	85 c0                	test   %eax,%eax
 804c74f:	75 0c                	jne    804c75d <input_parameters()+0x371>
 804c751:	c7 04 24 f4 f2 04 08 	movl   $0x804f2f4,(%esp)
 804c758:	e8 13 c6 ff ff       	call   8048d70 <printf@plt>
 804c75d:	c7 44 24 04 f8 06 05 	movl   $0x80506f8,0x4(%esp)
 804c764:	08 
 804c765:	c7 04 24 95 f1 04 08 	movl   $0x804f195,(%esp)
 804c76c:	e8 7f c5 ff ff       	call   8048cf0 <scanf@plt>
 804c771:	eb 0a                	jmp    804c77d <input_parameters()+0x391>
 804c773:	c7 05 ac 04 05 08 00 	movl   $0x0,0x80504ac
 804c77a:	00 00 00 
 804c77d:	a1 c0 04 05 08       	mov    0x80504c0,%eax
 804c782:	85 c0                	test   %eax,%eax
 804c784:	75 0c                	jne    804c792 <input_parameters()+0x3a6>
 804c786:	c7 04 24 1c f3 04 08 	movl   $0x804f31c,(%esp)
 804c78d:	e8 de c5 ff ff       	call   8048d70 <printf@plt>
 804c792:	e8 35 fc ff ff       	call   804c3cc <ignore_comment()>
 804c797:	e8 84 c4 ff ff       	call   8048c20 <getchar@plt>
 804c79c:	88 45 fb             	mov    %al,-0x5(%ebp)
 804c79f:	80 7d fb 79          	cmpb   $0x79,-0x5(%ebp)
 804c7a3:	74 06                	je     804c7ab <input_parameters()+0x3bf>
 804c7a5:	80 7d fb 6e          	cmpb   $0x6e,-0x5(%ebp)
 804c7a9:	75 ec                	jne    804c797 <input_parameters()+0x3ab>
 804c7ab:	80 7d fb 79          	cmpb   $0x79,-0x5(%ebp)
 804c7af:	75 0c                	jne    804c7bd <input_parameters()+0x3d1>
 804c7b1:	c7 05 b0 04 05 08 01 	movl   $0x1,0x80504b0
 804c7b8:	00 00 00 
 804c7bb:	eb 0a                	jmp    804c7c7 <input_parameters()+0x3db>
 804c7bd:	c7 05 b0 04 05 08 00 	movl   $0x0,0x80504b0
 804c7c4:	00 00 00 
 804c7c7:	a1 c0 04 05 08       	mov    0x80504c0,%eax
 804c7cc:	85 c0                	test   %eax,%eax
 804c7ce:	75 0c                	jne    804c7dc <input_parameters()+0x3f0>
 804c7d0:	c7 04 24 3d f3 04 08 	movl   $0x804f33d,(%esp)
 804c7d7:	e8 94 c5 ff ff       	call   8048d70 <printf@plt>
 804c7dc:	e8 eb fb ff ff       	call   804c3cc <ignore_comment()>
 804c7e1:	c7 44 24 04 a8 04 05 	movl   $0x80504a8,0x4(%esp)
 804c7e8:	08 
 804c7e9:	c7 04 24 f5 f0 04 08 	movl   $0x804f0f5,(%esp)
 804c7f0:	e8 fb c4 ff ff       	call   8048cf0 <scanf@plt>
 804c7f5:	a1 c0 04 05 08       	mov    0x80504c0,%eax
 804c7fa:	85 c0                	test   %eax,%eax
 804c7fc:	75 3c                	jne    804c83a <input_parameters()+0x44e>
 804c7fe:	c7 04 24 50 f3 04 08 	movl   $0x804f350,(%esp)
 804c805:	e8 66 c5 ff ff       	call   8048d70 <printf@plt>
 804c80a:	c7 04 24 70 f3 04 08 	movl   $0x804f370,(%esp)
 804c811:	e8 5a c5 ff ff       	call   8048d70 <printf@plt>
 804c816:	c7 04 24 b4 f3 04 08 	movl   $0x804f3b4,(%esp)
 804c81d:	e8 4e c5 ff ff       	call   8048d70 <printf@plt>
 804c822:	c7 04 24 e4 f3 04 08 	movl   $0x804f3e4,(%esp)
 804c829:	e8 42 c5 ff ff       	call   8048d70 <printf@plt>
 804c82e:	c7 04 24 26 f4 04 08 	movl   $0x804f426,(%esp)
 804c835:	e8 36 c5 ff ff       	call   8048d70 <printf@plt>
 804c83a:	e8 8d fb ff ff       	call   804c3cc <ignore_comment()>
 804c83f:	c7 44 24 04 a4 04 05 	movl   $0x80504a4,0x4(%esp)
 804c846:	08 
 804c847:	c7 04 24 f5 f0 04 08 	movl   $0x804f0f5,(%esp)
 804c84e:	e8 9d c4 ff ff       	call   8048cf0 <scanf@plt>
 804c853:	a1 a4 04 05 08       	mov    0x80504a4,%eax
 804c858:	83 f8 01             	cmp    $0x1,%eax
 804c85b:	75 30                	jne    804c88d <input_parameters()+0x4a1>
 804c85d:	a1 c0 04 05 08       	mov    0x80504c0,%eax
 804c862:	85 c0                	test   %eax,%eax
 804c864:	75 0c                	jne    804c872 <input_parameters()+0x486>
 804c866:	c7 04 24 3c f4 04 08 	movl   $0x804f43c,(%esp)
 804c86d:	e8 fe c4 ff ff       	call   8048d70 <printf@plt>
 804c872:	e8 55 fb ff ff       	call   804c3cc <ignore_comment()>
 804c877:	c7 44 24 04 c4 04 05 	movl   $0x80504c4,0x4(%esp)
 804c87e:	08 
 804c87f:	c7 04 24 f5 f0 04 08 	movl   $0x804f0f5,(%esp)
 804c886:	e8 65 c4 ff ff       	call   8048cf0 <scanf@plt>
 804c88b:	eb 2c                	jmp    804c8b9 <input_parameters()+0x4cd>
 804c88d:	a1 c0 04 05 08       	mov    0x80504c0,%eax
 804c892:	85 c0                	test   %eax,%eax
 804c894:	74 23                	je     804c8b9 <input_parameters()+0x4cd>
 804c896:	e8 31 fb ff ff       	call   804c3cc <ignore_comment()>
 804c89b:	c7 44 24 04 c4 04 05 	movl   $0x80504c4,0x4(%esp)
 804c8a2:	08 
 804c8a3:	c7 04 24 f5 f0 04 08 	movl   $0x804f0f5,(%esp)
 804c8aa:	e8 41 c4 ff ff       	call   8048cf0 <scanf@plt>
 804c8af:	c7 05 c4 04 05 08 00 	movl   $0x0,0x80504c4
 804c8b6:	00 00 00 
 804c8b9:	a1 ac 04 05 08       	mov    0x80504ac,%eax
 804c8be:	85 c0                	test   %eax,%eax
 804c8c0:	74 0a                	je     804c8cc <input_parameters()+0x4e0>
 804c8c2:	c7 05 a4 04 05 08 03 	movl   $0x3,0x80504a4
 804c8c9:	00 00 00 
 804c8cc:	a1 c4 04 05 08       	mov    0x80504c4,%eax
 804c8d1:	89 44 24 04          	mov    %eax,0x4(%esp)
 804c8d5:	c7 04 24 55 f4 04 08 	movl   $0x804f455,(%esp)
 804c8dc:	e8 8f c4 ff ff       	call   8048d70 <printf@plt>
 804c8e1:	a1 bc 04 05 08       	mov    0x80504bc,%eax
 804c8e6:	85 c0                	test   %eax,%eax
 804c8e8:	0f 84 ee 00 00 00    	je     804c9dc <input_parameters()+0x5f0>
 804c8ee:	a1 c0 04 05 08       	mov    0x80504c0,%eax
 804c8f3:	85 c0                	test   %eax,%eax
 804c8f5:	75 3c                	jne    804c933 <input_parameters()+0x547>
 804c8f7:	c7 04 24 64 f4 04 08 	movl   $0x804f464,(%esp)
 804c8fe:	e8 6d c4 ff ff       	call   8048d70 <printf@plt>
 804c903:	c7 04 24 84 f4 04 08 	movl   $0x804f484,(%esp)
 804c90a:	e8 61 c4 ff ff       	call   8048d70 <printf@plt>
 804c90f:	c7 04 24 b4 f4 04 08 	movl   $0x804f4b4,(%esp)
 804c916:	e8 55 c4 ff ff       	call   8048d70 <printf@plt>
 804c91b:	c7 04 24 e4 f4 04 08 	movl   $0x804f4e4,(%esp)
 804c922:	e8 49 c4 ff ff       	call   8048d70 <printf@plt>
 804c927:	c7 04 24 26 f4 04 08 	movl   $0x804f426,(%esp)
 804c92e:	e8 3d c4 ff ff       	call   8048d70 <printf@plt>
 804c933:	e8 94 fa ff ff       	call   804c3cc <ignore_comment()>
 804c938:	c7 44 24 04 a0 04 05 	movl   $0x80504a0,0x4(%esp)
 804c93f:	08 
 804c940:	c7 04 24 f5 f0 04 08 	movl   $0x804f0f5,(%esp)
 804c947:	e8 a4 c3 ff ff       	call   8048cf0 <scanf@plt>
 804c94c:	a1 c0 04 05 08       	mov    0x80504c0,%eax
 804c951:	85 c0                	test   %eax,%eax
 804c953:	75 0c                	jne    804c961 <input_parameters()+0x575>
 804c955:	c7 04 24 18 f5 04 08 	movl   $0x804f518,(%esp)
 804c95c:	e8 0f c4 ff ff       	call   8048d70 <printf@plt>
 804c961:	e8 66 fa ff ff       	call   804c3cc <ignore_comment()>
 804c966:	e8 b5 c2 ff ff       	call   8048c20 <getchar@plt>
 804c96b:	88 45 fb             	mov    %al,-0x5(%ebp)
 804c96e:	80 7d fb 73          	cmpb   $0x73,-0x5(%ebp)
 804c972:	74 06                	je     804c97a <input_parameters()+0x58e>
 804c974:	80 7d fb 62          	cmpb   $0x62,-0x5(%ebp)
 804c978:	75 ec                	jne    804c966 <input_parameters()+0x57a>
 804c97a:	80 7d fb 73          	cmpb   $0x73,-0x5(%ebp)
 804c97e:	75 0c                	jne    804c98c <input_parameters()+0x5a0>
 804c980:	c7 05 9c 04 05 08 01 	movl   $0x1,0x805049c
 804c987:	00 00 00 
 804c98a:	eb 0a                	jmp    804c996 <input_parameters()+0x5aa>
 804c98c:	c7 05 9c 04 05 08 00 	movl   $0x0,0x805049c
 804c993:	00 00 00 
 804c996:	a1 9c 04 05 08       	mov    0x805049c,%eax
 804c99b:	83 f8 01             	cmp    $0x1,%eax
 804c99e:	0f 85 9d 00 00 00    	jne    804ca41 <input_parameters()+0x655>
 804c9a4:	a1 c0 04 05 08       	mov    0x80504c0,%eax
 804c9a9:	85 c0                	test   %eax,%eax
 804c9ab:	75 0c                	jne    804c9b9 <input_parameters()+0x5cd>
 804c9ad:	c7 04 24 48 f5 04 08 	movl   $0x804f548,(%esp)
 804c9b4:	e8 b7 c3 ff ff       	call   8048d70 <printf@plt>
 804c9b9:	e8 0e fa ff ff       	call   804c3cc <ignore_comment()>
 804c9be:	c7 44 24 08 dc 04 05 	movl   $0x80504dc,0x8(%esp)
 804c9c5:	08 
 804c9c6:	c7 44 24 04 d8 04 05 	movl   $0x80504d8,0x4(%esp)
 804c9cd:	08 
 804c9ce:	c7 04 24 62 f2 04 08 	movl   $0x804f262,(%esp)
 804c9d5:	e8 16 c3 ff ff       	call   8048cf0 <scanf@plt>
 804c9da:	eb 65                	jmp    804ca41 <input_parameters()+0x655>
 804c9dc:	e8 eb f9 ff ff       	call   804c3cc <ignore_comment()>
 804c9e1:	c7 44 24 04 a0 04 05 	movl   $0x80504a0,0x4(%esp)
 804c9e8:	08 
 804c9e9:	c7 04 24 f5 f0 04 08 	movl   $0x804f0f5,(%esp)
 804c9f0:	e8 fb c2 ff ff       	call   8048cf0 <scanf@plt>
 804c9f5:	c7 05 a0 04 05 08 01 	movl   $0x1,0x80504a0
 804c9fc:	00 00 00 
 804c9ff:	e8 c8 f9 ff ff       	call   804c3cc <ignore_comment()>
 804ca04:	e8 17 c2 ff ff       	call   8048c20 <getchar@plt>
 804ca09:	88 45 fb             	mov    %al,-0x5(%ebp)
 804ca0c:	e8 bb f9 ff ff       	call   804c3cc <ignore_comment()>
 804ca11:	c7 44 24 08 dc 04 05 	movl   $0x80504dc,0x8(%esp)
 804ca18:	08 
 804ca19:	c7 44 24 04 d8 04 05 	movl   $0x80504d8,0x4(%esp)
 804ca20:	08 
 804ca21:	c7 04 24 62 f2 04 08 	movl   $0x804f262,(%esp)
 804ca28:	e8 c3 c2 ff ff       	call   8048cf0 <scanf@plt>
 804ca2d:	b8 00 00 00 00       	mov    $0x0,%eax
 804ca32:	a3 d8 04 05 08       	mov    %eax,0x80504d8
 804ca37:	b8 00 00 00 00       	mov    $0x0,%eax
 804ca3c:	a3 dc 04 05 08       	mov    %eax,0x80504dc
 804ca41:	a1 c0 04 05 08       	mov    0x80504c0,%eax
 804ca46:	85 c0                	test   %eax,%eax
 804ca48:	75 0c                	jne    804ca56 <input_parameters()+0x66a>
 804ca4a:	c7 04 24 69 f5 04 08 	movl   $0x804f569,(%esp)
 804ca51:	e8 1a c3 ff ff       	call   8048d70 <printf@plt>
 804ca56:	e8 71 f9 ff ff       	call   804c3cc <ignore_comment()>
 804ca5b:	c7 44 24 04 d4 04 05 	movl   $0x80504d4,0x4(%esp)
 804ca62:	08 
 804ca63:	c7 04 24 95 f1 04 08 	movl   $0x804f195,(%esp)
 804ca6a:	e8 81 c2 ff ff       	call   8048cf0 <scanf@plt>
 804ca6f:	c7 04 24 00 00 00 00 	movl   $0x0,(%esp)
 804ca76:	e8 55 c3 ff ff       	call   8048dd0 <time@plt>
 804ca7b:	89 c1                	mov    %eax,%ecx
 804ca7d:	c7 45 dc 67 66 66 66 	movl   $0x66666667,-0x24(%ebp)
 804ca84:	8b 45 dc             	mov    -0x24(%ebp),%eax
 804ca87:	f7 e9                	imul   %ecx
 804ca89:	c1 fa 02             	sar    $0x2,%edx
 804ca8c:	89 c8                	mov    %ecx,%eax
 804ca8e:	c1 f8 1f             	sar    $0x1f,%eax
